(lp0
(dp1
S'local_id'
p2
S'1383'
p3
sS'remote_id'
p4
(lp5
Vjournals/jcisd/LuingeKKM87
p6
asa(dp7
g2
S'1564'
p8
sg4
(lp9
Vreference/ml/X17ke
p10
asa(dp11
g2
S'911'
p12
sg4
(lp13
Vjournals/jcisd/Pollock84
p14
asa(dp15
g2
S'3711'
p16
sg4
(lp17
Vjournals/jcisd/DaszykowskiWM02
p18
asa(dp19
g2
S'2172'
p20
sg4
(lp21
Vconf/dsmml/LawrencePJ04
p22
asa(dp23
g2
S'1949'
p24
sg4
(lp25
Vconf/bcb/SubramaniamNS11
p26
asa(dp27
g2
S'3551'
p28
sg4
(lp29
Vconf/icdem/CeliaR10
p30
asa(dp31
g2
S'428'
p32
sg4
(lp33
Vconf/wirn/YeSP10
p34
asa(dp35
g2
S'1943'
p36
sg4
(lp37
Vbooks/sp/Quintarelli04
p38
asa(dp39
g2
S'3499'
p40
sg4
(lp41
Vconf/kdd/KhoslaCLCHL10
p42
asa(dp43
g2
S'1946'
p44
sg4
(lp45
Vconf/miccai/PaulyHN10
p46
asa(dp47
g2
S'1254'
p48
sg4
(lp49
Vseries/sci/BrazdilL10
p50
asa(dp51
g2
S'3559'
p52
sg4
(lp53
Vreference/ml/X17lt
p54
aVreference/ml/X10le
p55
asa(dp56
g2
S'1945'
p57
sg4
(lp58
Vjournals/jcisd/DongYWHCDF02
p59
asa(dp60
g2
S'818'
p61
sg4
(lp62
Vreference/ml/X17dq
p63
asa(dp64
g2
S'345'
p65
sg4
(lp66
Vconf/iccS/KimKJL03
p67
asa(dp68
g2
S'347'
p69
sg4
(lp70
Vreference/ml/GartnerHW17
p71
asa(dp72
g2
S'3853'
p73
sg4
(lp74
Vreference/ml/Torgo17
p75
asa(dp76
g2
S'2425'
p77
sg4
(lp78
Vconf/ihi/GuillenJE10
p79
asa(dp80
g2
S'343'
p81
sg4
(lp82
Vjournals/titb/BaskaranGBG11
p83
asa(dp84
g2
S'810'
p85
sg4
(lp86
Vjournals/jcisd/Zaye81
p87
asa(dp88
g2
S'811'
p89
sg4
(lp90
Vreference/ml/X17dr
p91
asa(dp92
g2
S'812'
p93
sg4
(lp94
Vreference/ml/X17ds
p95
asa(dp96
g2
S'813'
p97
sg4
(lp98
Vreference/ml/X17dt
p99
asa(dp100
g2
S'348'
p101
sg4
(lp102
Vjournals/jcisd/Cuadra75
p103
asa(dp104
g2
S'816'
p105
sg4
(lp106
Vreference/ml/X17dn
p107
asa(dp108
g2
S'1739'
p109
sg4
(lp110
Vjournals/jcisd/SchlieperIM88
p111
asa(dp112
g2
S'2859'
p113
sg4
(lp114
Vreference/ml/X17qv
p115
asa(dp116
g2
S'2858'
p117
sg4
(lp118
Vconf/cdb/1997
p119
asa(dp120
g2
S'2912'
p121
sg4
(lp122
Vreference/ml/X17bp
p123
asa(dp124
g2
S'2913'
p125
sg4
(lp126
Vjournals/jcisd/BayadaHG99
p127
asa(dp128
g2
S'2914'
p129
sg4
(lp130
Vjournals/jcisd/Golbraikh00
p131
asa(dp132
g2
S'2916'
p133
sg4
(lp134
Vreference/ml/NamataG17
p135
asa(dp136
g2
S'2917'
p137
sg4
(lp138
Vreference/ml/X17bo
p139
asa(dp140
g2
S'1793'
p141
sg4
(lp142
Vjournals/ia/MelloSV10
p143
asa(dp144
g2
S'1792'
p145
sg4
(lp146
Vjournals/jcisd/NellessenF92
p147
asa(dp148
g2
S'2853'
p149
sg4
(lp150
Vjournals/jmlr/IlinR10
p151
asa(dp152
g2
S'1790'
p153
sg4
(lp154
Vconf/isda/GoncalvesC10
p155
asa(dp156
g2
S'712'
p157
sg4
(lp158
Vconf/xsym/2010
p159
asa(dp160
g2
S'3493'
p161
sg4
(lp162
Vjournals/jcisd/NickolaisenB86
p163
asa(dp164
g2
S'1490'
p165
sg4
(lp166
Vconf/igarss/DomenicoCDNB06
p167
asa(dp168
g2
S'3332'
p169
sg4
(lp170
Vreference/ml/Flach17b
p171
asa(dp172
g2
S'1492'
p173
sg4
(lp174
Vreference/ml/X17ig
p175
asa(dp176
g2
S'1493'
p177
sg4
(lp178
Vjournals/ml/LaskovL10
p179
asa(dp180
g2
S'1494'
p181
sg4
(lp182
Vreference/ml/X17ii
p183
asa(dp184
g2
S'1495'
p185
sg4
(lp186
Vjournals/pe/SoysalS10
p187
asa(dp188
g2
S'3335'
p189
sg4
(lp190
Vreference/ml/Reid17
p191
asa(dp192
g2
S'1497'
p193
sg4
(lp194
Vreference/ml/X17im
p195
asa(dp196
g2
S'1498'
p197
sg4
(lp198
Vseries/sci/KryzhanovskyKL10
p199
asa(dp200
g2
S'3203'
p201
sg4
(lp202
Vreference/ml/Furnkranz17d
p203
asa(dp204
g2
S'3491'
p205
sg4
(lp206
Vbooks/garland/Standish67
p207
asa(dp208
g2
S'423'
p209
sg4
(lp210
Vjournals/jcisd/BushS93
p211
asa(dp212
g2
S'1626'
p213
sg4
(lp214
Vreference/ml/X17eb
p215
asa(dp216
g2
S'1068'
p217
sg4
(lp218
Vjournals/jcisd/ContrerasDR87
p219
asa(dp220
g2
S'1703'
p221
sg4
(lp222
Vjournals/jcisd/RoushSY79
p223
asa(dp224
g2
S'1704'
p225
sg4
(lp226
Vreference/ml/X17vg
p227
asa(dp228
g2
S'1997'
p229
sg4
(lp230
Vjournals/corr/abs-1111-2111
p231
asa(dp232
g2
S'2383'
p233
sg4
(lp234
Vreference/ml/Martin17
p235
asa(dp236
g2
S'1393'
p237
sg4
(lp238
Vreference/ml/Krawiec17
p239
asa(dp240
g2
S'1168'
p241
sg4
(lp242
Vseries/sci/SkowronS10
p243
asa(dp244
g2
S'2591'
p245
sg4
(lp246
Vjournals/ml/CrandallG11
p247
asa(dp248
g2
S'1065'
p249
sg4
(lp250
Vjournals/jcisd/KrebsJ00
p251
asa(dp252
g2
S'1529'
p253
sg4
(lp254
Vreference/ml/X17gf
p255
asa(dp256
g2
S'427'
p257
sg4
(lp258
Vjournals/jcisd/DuvenbeckZ93
p259
asa(dp260
g2
S'1669'
p261
sg4
(lp262
Vjournals/chinaf/LinWD04
p263
asa(dp264
g2
S'3682'
p265
sg4
(lp266
Vconf/bibm/GaoL10
p267
asa(dp268
g2
S'1665'
p269
sg4
(lp270
Vreference/ml/Sakakibara17
p271
asa(dp272
g2
S'912'
p273
sg4
(lp274
Vjournals/jcisd/Metanomski80
p275
asa(dp276
g2
S'1663'
p277
sg4
(lp278
Vconf/saso/CouceiroRR10
p279
asa(dp280
g2
S'1661'
p281
sg4
(lp282
Vconf/bncod/2005
p283
asa(dp284
g2
S'590'
p285
sg4
(lp286
Vreference/ml/X17hl
p287
asa(dp288
g2
S'593'
p289
sg4
(lp290
Vreference/ml/X17hm
p291
asa(dp292
g2
S'592'
p293
sg4
(lp294
Vreference/ml/X17hn
p295
asa(dp296
g2
S'594'
p297
sg4
(lp298
Vreference/ml/X17ho
p299
asa(dp300
g2
S'3775'
p301
sg4
(lp302
Vjournals/jcisd/Hawkins80
p303
asa(dp304
g2
S'3813'
p305
sg4
(lp306
Vseries/sci/HassanienASP10
p307
asa(dp308
g2
S'1122'
p309
sg4
(lp310
Vreference/ml/X17bx
p311
asa(dp312
g2
S'3778'
p313
sg4
(lp314
Vjournals/mlc/ZhuW11
p315
asa(dp316
g2
S'3667'
p317
sg4
(lp318
Vconf/gem/OliwaR10
p319
asa(dp320
g2
S'1126'
p321
sg4
(lp322
Vjournals/jcisd/RumbleL85
p323
asa(dp324
g2
S'1127'
p325
sg4
(lp326
Vjournals/jcisd/AlvagerGHW97
p327
asa(dp328
g2
S'3142'
p329
sg4
(lp330
Vjournals/jcisd/DelgodaP93
p331
asa(dp332
g2
S'2607'
p333
sg4
(lp334
Vconf/acml/2011
p335
asa(dp336
g2
S'3146'
p337
sg4
(lp338
Vconf/mipro/HucaljukR11
p339
asa(dp340
g2
S'1709'
p341
sg4
(lp342
Vconf/icmla/BulbulU11
p343
asa(dp344
g2
S'3672'
p345
sg4
(lp346
Vreference/ml/X17ix
p347
asa(dp348
g2
S'3816'
p349
sg4
(lp350
Vjournals/neuroimage/Rizk-JacksonSSKDGCPA11
p351
asa(dp352
g2
S'2820'
p353
sg4
(lp354
Vreference/ml/X17ef
p355
asa(dp356
g2
S'2822'
p357
sg4
(lp358
Vconf/caise/Bouneffouf11
p359
asa(dp360
g2
S'583'
p361
sg4
(lp362
Vjournals/jcisd/YangC03
p363
asa(dp364
g2
S'2543'
p365
sg4
(lp366
Vreference/ml/X17mn
p367
asa(dp368
g2
S'2542'
p369
sg4
(lp370
Vreference/ml/X17mm
p371
asa(dp372
g2
S'2541'
p373
sg4
(lp374
Vreference/ml/X17mh
p375
asa(dp376
g2
S'2988'
p377
sg4
(lp378
Vconf/jcdl/FerebeeBBH03
p379
asa(dp380
g2
S'3382'
p381
sg4
(lp382
Vreference/ml/X17ed
p383
aVreference/ml/X10ea
p384
asa(dp385
g2
S'2602'
p386
sg4
(lp387
Vjournals/ml/LavioletteMSS10
p388
asa(dp389
g2
S'3028'
p390
sg4
(lp391
Vreference/ml/KeoghM17
p392
asa(dp393
g2
S'2983'
p394
sg4
(lp395
Vreference/ml/X17ca
p396
asa(dp397
g2
S'3026'
p398
sg4
(lp399
Vconf/cibb/SavojardoFMSC10
p400
asa(dp401
g2
S'2981'
p402
sg4
(lp403
Vreference/ml/X17nc
p404
asa(dp405
g2
S'2980'
p406
sg4
(lp407
Vjournals/esi/NativiCDB08
p408
asa(dp409
g2
S'1359'
p410
sg4
(lp411
Vjournals/jcisd/RozasF90
p412
asa(dp413
g2
S'3022'
p414
sg4
(lp415
Vjournals/bioinformatics/BallesterM10
p416
asa(dp417
g2
S'3388'
p418
sg4
(lp419
Vreference/ml/X17nm
p420
asa(dp421
g2
S'3020'
p422
sg4
(lp423
Vjournals/jcisd/SchweitzerS96a
p424
asa(dp425
g2
S'526'
p426
sg4
(lp427
Vreference/ml/HorvathW17
p428
aVreference/ml/HorvathW10
p429
asa(dp430
g2
S'1408'
p431
sg4
(lp432
Vjournals/jcisd/KorhonenTLP03
p433
asa(dp434
g2
S'2385'
p435
sg4
(lp436
Vconf/icmlc/WangLO10
p437
asa(dp438
g2
S'1019'
p439
sg4
(lp440
Vjournals/isci/KuoY10
p441
asa(dp442
g2
S'2387'
p443
sg4
(lp444
Vconf/icmla/RamirezM11
p445
asa(dp446
g2
S'2386'
p447
sg4
(lp448
Vjournals/jcisd/TakaokaEYKOSOSY03
p449
asa(dp450
g2
S'1450'
p451
sg4
(lp452
Vjournals/jcisd/GoddenB02
p453
asa(dp454
g2
S'1016'
p455
sg4
(lp456
Vjournals/ecoi/FaisalDHB10
p457
asa(dp458
g2
S'1400'
p459
sg4
(lp460
Vconf/dood/89
p461
asa(dp462
g2
S'1010'
p463
sg4
(lp464
Vreference/ml/Cussens17
p465
asa(dp466
g2
S'1011'
p467
sg4
(lp468
Vconf/cisda/ArndtZ11
p469
asa(dp470
g2
S'1518'
p471
sg4
(lp472
Vreference/ml/X17ic
p473
asa(dp474
g2
S'2442'
p475
sg4
(lp476
Vjournals/ml/SingliarH10
p477
asa(dp478
g2
S'3582'
p479
sg4
(lp480
Vreference/ml/Craw17a
p481
asa(dp482
g2
S'448'
p483
sg4
(lp484
Vjournals/jcisd/BawdenB85
p485
asa(dp486
g2
S'1230'
p487
sg4
(lp488
Vseries/synthesis/2010Genesereth
p489
asa(dp490
g2
S'1231'
p491
sg4
(lp492
Vreference/ml/Roos17
p493
asa(dp494
g2
S'2444'
p495
sg4
(lp496
Vreference/ml/Korb17
p497
aVreference/ml/McAuleyCB17
p498
asa(dp499
g2
S'2524'
p500
sg4
(lp501
Vreference/ml/X17lq
p502
aVreference/ml/Lanzi17
p503
asa(dp504
g2
S'2572'
p505
sg4
(lp506
Vjournals/jcisd/TrepalinSBNLIS03
p507
asa(dp508
g2
S'3589'
p509
sg4
(lp510
Vreference/ml/X17hh
p511
asa(dp512
g2
S'2448'
p513
sg4
(lp514
Vreference/ml/Webb17h
p515
asa(dp516
g2
S'1336'
p517
sg4
(lp518
Vjournals/jmlr/Recht11
p519
asa(dp520
g2
S'2766'
p521
sg4
(lp522
Vreference/ml/ShararaG17
p523
asa(dp524
g2
S'2764'
p525
sg4
(lp526
Vreference/ml/X17le
p527
asa(dp528
g2
S'3676'
p529
sg4
(lp530
Vjournals/tcbb/DongZ11
p531
asa(dp532
g2
S'1134'
p533
sg4
(lp534
Vjournals/gis/WaughH87
p535
asa(dp536
g2
S'1846'
p537
sg4
(lp538
Vseries/sci/DonmezC10
p539
asa(dp540
g2
S'902'
p541
sg4
(lp542
Vconf/cicsyn/OlatunjiA10
p543
asa(dp544
g2
S'903'
p545
sg4
(lp546
Vreference/ml/Furnkranz17c
p547
asa(dp548
g2
S'39'
p549
sg4
(lp550
Vjournals/jcisd/GoddenFB03
p551
asa(dp552
g2
S'1848'
p553
sg4
(lp554
Vreference/ml/0001B17
p555
aVreference/ml/PetersB10
p556
asa(dp557
g2
S'1540'
p558
sg4
(lp559
Vreference/ml/X17gj
p560
asa(dp561
g2
S'905'
p562
sg4
(lp563
Vjournals/jcisd/ShiFLWASPW00
p564
asa(dp565
g2
S'908'
p566
sg4
(lp567
Vjournals/jmlr/YuVGS10
p568
asa(dp569
g2
S'909'
p570
sg4
(lp571
Vreference/ml/Blockeel17
p572
asa(dp573
g2
S'36'
p574
sg4
(lp575
Vconf/airs/IslamMI10
p576
aVjournals/corr/abs-1008-4249
p577
asa(dp578
g2
S'1845'
p579
sg4
(lp580
Vreference/ml/Sayyad-Shirabad17
p581
aVreference/ml/Sayyad-Shirabad10
p582
asa(dp583
g2
S'2511'
p584
sg4
(lp585
Vconf/iis/PankowskiH05
p586
asa(dp587
g2
S'1537'
p588
sg4
(lp589
Vreference/ml/X17gk
p590
asa(dp591
g2
S'3093'
p592
sg4
(lp593
Vjournals/jcisd/MartinsACGAS03
p594
asa(dp595
g2
S'1535'
p596
sg4
(lp597
Vconf/pacbb/UrquizaRPHFO11
p598
asa(dp599
g2
S'3091'
p600
sg4
(lp601
Vjournals/ton/MirzaSBZ10
p602
asa(dp603
g2
S'1533'
p604
sg4
(lp605
Vconf/xsym/2005
p606
asa(dp607
g2
S'1532'
p608
sg4
(lp609
Vconf/xsym/2004
p610
asa(dp611
g2
S'3251'
p612
sg4
(lp613
Vjournals/jmlr/TulabandhulaR13
p614
asa(dp615
g2
S'436'
p616
sg4
(lp617
Vjournals/jcisd/Palm90
p618
asa(dp619
g2
S'3098'
p620
sg4
(lp621
Vreference/ml/Sebag17
p622
asa(dp623
g2
S'432'
p624
sg4
(lp625
Vjournals/jcisd/DiospatonyiHB01
p626
asa(dp627
g2
S'430'
p628
sg4
(lp629
Vreference/ml/Zhu17
p630
asa(dp631
g2
S'1936'
p632
sg4
(lp633
Vconf/icnc/ChanYZWSM11
p634
asa(dp635
g2
S'2993'
p636
sg4
(lp637
Vconf/cibcb/FogelTJH10
p638
asa(dp639
g2
S'2613'
p640
sg4
(lp641
Vjournals/ml/HardoonS10
p642
asa(dp643
g2
S'338'
p644
sg4
(lp645
Vconf/edbt/88
p646
asa(dp647
g2
S'3805'
p648
sg4
(lp649
Vjournals/tsp/FederFHLLNSY04
p650
asa(dp651
g2
S'2529'
p652
sg4
(lp653
Vreference/ml/X17md
p654
asa(dp655
g2
S'3807'
p656
sg4
(lp657
Vreference/ml/Drummond17a
p658
asa(dp659
g2
S'1934'
p660
sg4
(lp661
Vreference/ml/Getoor17
p662
asa(dp663
g2
S'2201'
p664
sg4
(lp665
Vjournals/jmlr/ZhangLDJ12
p666
asa(dp667
g2
S'2619'
p668
sg4
(lp669
Vreference/ml/Sammut17
p670
asa(dp671
g2
S'2528'
p672
sg4
(lp673
Vreference/ml/X17mc
p674
aVreference/ml/X10ln
p675
asa(dp676
g2
S'3868'
p677
sg4
(lp678
Vjournals/jcisd/SchultzW97
p679
asa(dp680
g2
S'3298'
p681
sg4
(lp682
Vreference/ml/X17ci
p683
asa(dp684
g2
S'1944'
p685
sg4
(lp686
Vjournals/jcisd/IbisonJKNSTVJ93
p687
asa(dp688
g2
S'473'
p689
sg4
(lp690
Vreference/ml/X17lj
p691
asa(dp692
g2
S'3295'
p693
sg4
(lp694
Vreference/ml/X17cm
p695
asa(dp696
g2
S'3296'
p697
sg4
(lp698
Vreference/ml/X17cg
p699
asa(dp700
g2
S'1549'
p701
sg4
(lp702
Vjournals/jcisd/BergerhoffHSB83
p703
asa(dp704
g2
S'3290'
p705
sg4
(lp706
Vreference/ml/X17cr
p707
asa(dp708
g2
S'3291'
p709
sg4
(lp710
Vreference/ml/SammutH17
p711
asa(dp712
g2
S'3292'
p713
sg4
(lp714
Vreference/ml/X17ck
p715
asa(dp716
g2
S'3293'
p717
sg4
(lp718
Vreference/ml/X17cj
p719
asa(dp720
g2
S'856'
p721
sg4
(lp722
Vreference/ml/Zeugmann17b
p723
asa(dp724
g2
S'3518'
p725
sg4
(lp726
Vjournals/mss/HerdenP02
p727
asa(dp728
g2
S'1425'
p729
sg4
(lp730
Vconf/icdem/SubbulakshmiSR10
p731
asa(dp732
g2
S'852'
p733
sg4
(lp734
Vjournals/candc/Lisy93
p735
asa(dp736
g2
S'853'
p737
sg4
(lp738
Vconf/oodbs/88
p739
asa(dp740
g2
S'3513'
p741
sg4
(lp742
Vseries/sci/BianchiRM10
p743
asa(dp744
g2
S'3458'
p745
sg4
(lp746
Vreference/ml/X17np
p747
asa(dp748
g2
S'3510'
p749
sg4
(lp750
Vreference/ml/X17gt
p751
asa(dp752
g2
S'3516'
p753
sg4
(lp754
Vreference/ml/X17gu
p755
asa(dp756
g2
S'3515'
p757
sg4
(lp758
Vjournals/ijfipm/Reyaz-AhmedHZ10
p759
asa(dp760
g2
S'3514'
p761
sg4
(lp762
Vjournals/jmlr/WangLCD10
p763
asa(dp764
g2
S'2688'
p765
sg4
(lp766
Vjournals/jcisd/SkolnikS75
p767
asa(dp768
g2
S'554'
p769
sg4
(lp770
Vjournals/jasis/LongoM81
p771
asa(dp772
g2
S'2685'
p773
sg4
(lp774
Vconf/si3d/OBrienL10
p775
asa(dp776
g2
S'2708'
p777
sg4
(lp778
Vreference/ml/X17ms
p779
asa(dp780
g2
S'2830'
p781
sg4
(lp782
Vconf/robio/DoganEI11
p783
asa(dp784
g2
S'2680'
p785
sg4
(lp786
Vreference/ml/Toivonen17a
p787
asa(dp788
g2
S'2681'
p789
sg4
(lp790
Vreference/ml/Toivonen17b
p791
asa(dp792
g2
S'2682'
p793
sg4
(lp794
Vreference/ml/Toivonen17c
p795
asa(dp796
g2
S'2683'
p797
sg4
(lp798
Vreference/ml/DorigoBS17
p799
asa(dp800
g2
S'3467'
p801
sg4
(lp802
Vreference/ml/X17hk
p803
asa(dp804
g2
S'846'
p805
sg4
(lp806
Vreference/ml/Furnkranz17j
p807
asa(dp808
g2
S'3851'
p809
sg4
(lp810
Vjournals/jcisd/Cloutier91
p811
asa(dp812
g2
S'3195'
p813
sg4
(lp814
Vreference/ml/X17d
p815
asa(dp816
g2
S'3356'
p817
sg4
(lp818
Vconf/icassp/KonTMW11
p819
asa(dp820
g2
S'90'
p821
sg4
(lp822
Vreference/ml/Baxter17a
p823
asa(dp824
g2
S'92'
p825
sg4
(lp826
Vjournals/datascience/Paterson03
p827
asa(dp828
g2
S'94'
p829
sg4
(lp830
Vjournals/jcisd/StrokovL99
p831
asa(dp832
g2
S'1991'
p833
sg4
(lp834
Vjournals/neuroimage/NouretdinovCGCVVF11
p835
asa(dp836
g2
S'1990'
p837
sg4
(lp838
Vjournals/jmlr/CavallantiCG10
p839
asa(dp840
g2
S'3205'
p841
sg4
(lp842
Vjournals/jcisd/LentznerM94
p843
asa(dp844
g2
S'1627'
p845
sg4
(lp846
Vreference/ml/Strehl17
p847
asa(dp848
g2
S'3202'
p849
sg4
(lp850
Vreference/ml/Holder17
p851
aVreference/ml/Holder10
p852
asa(dp853
g2
S'1625'
p854
sg4
(lp855
Vjournals/jcisd/MilneNDWZ94
p856
asa(dp857
g2
S'2686'
p858
sg4
(lp859
Vconf/hri/ShortFM11
p860
asa(dp861
g2
S'1998'
p862
sg4
(lp863
Vjournals/jcisd/Moll97
p864
asa(dp865
g2
S'3375'
p866
sg4
(lp867
Vjournals/jcisd/ThalmannT79
p868
asa(dp869
g2
S'3106'
p870
sg4
(lp871
Vjournals/ml/AbernethyCC10
p872
asa(dp873
g2
S'3623'
p874
sg4
(lp875
Vjournals/jcisd/HendlichRB97
p876
asa(dp877
g2
S'2621'
p878
sg4
(lp879
Vconf/icann/OkadaHN10
p880
asa(dp881
g2
S'3011'
p882
sg4
(lp883
Vphd/de/Weimer2010
p884
asa(dp885
g2
S'3443'
p886
sg4
(lp887
Vconf/ijcnn/PhaniCR11
p888
asa(dp889
g2
S'3636'
p890
sg4
(lp891
Vjournals/jcisd/Heller85
p892
asa(dp893
g2
S'3637'
p894
sg4
(lp895
Vreference/ml/X17m
p896
asa(dp897
g2
S'3634'
p898
sg4
(lp899
Vconf/icmlc/LuT10
p900
asa(dp901
g2
S'3635'
p902
sg4
(lp903
Vreference/ml/Procopiuc17
p904
asa(dp905
g2
S'1799'
p906
sg4
(lp907
Vconf/cibcb/LoweBSOM11
p908
asa(dp909
g2
S'3630'
p910
sg4
(lp911
Vjournals/ml/TakenouchiI11
p912
asa(dp913
g2
S'3063'
p914
sg4
(lp915
Vreference/ml/X17be
p916
asa(dp917
g2
S'3062'
p918
sg4
(lp919
Vreference/ml/CorneHK17
p920
asa(dp921
g2
S'3061'
p922
sg4
(lp923
Vreference/ml/X17bg
p924
asa(dp925
g2
S'3060'
p926
sg4
(lp927
Vreference/ml/X17bf
p928
asa(dp929
g2
S'3066'
p930
sg4
(lp931
Vreference/ml/X17by
p932
asa(dp933
g2
S'3065'
p934
sg4
(lp935
Vreference/ml/X17cb
p936
aVreference/ml/X10bz
p937
asa(dp938
g2
S'2709'
p939
sg4
(lp940
Vjournals/jcisd/BarczaMMW86
p941
asa(dp942
g2
S'3068'
p943
sg4
(lp944
Vreference/ml/X17bw
p945
asa(dp946
g2
S'2594'
p947
sg4
(lp948
Vjournals/jmlr/DonmezLB10
p949
asa(dp950
g2
S'2940'
p951
sg4
(lp952
Vreference/ml/X17bj
p953
asa(dp954
g2
S'2345'
p955
sg4
(lp956
Vjournals/ml/AilonM10
p957
asa(dp958
g2
S'2344'
p959
sg4
(lp960
Vconf/cicling/DalianisSS11
p961
asa(dp962
g2
S'2347'
p963
sg4
(lp964
Vreference/ml/RayT17
p965
aVreference/ml/RayT10
p966
asa(dp967
g2
S'2643'
p968
sg4
(lp969
Vjournals/jcisd/BegerBWL01
p970
asa(dp971
g2
S'993'
p972
sg4
(lp973
Vreference/ml/Flach17a
p974
asa(dp975
g2
S'2343'
p976
sg4
(lp977
Vjournals/jcisd/DaszykowskiWM02a
p978
asa(dp979
g2
S'1191'
p980
sg4
(lp981
Vreference/ml/Bruha17
p982
asa(dp983
g2
S'1190'
p984
sg4
(lp985
Vreference/ml/X17ee
p986
asa(dp987
g2
S'1193'
p988
sg4
(lp989
Vreference/ml/X17ei
p990
asa(dp991
g2
S'1192'
p992
sg4
(lp993
Vreference/ml/X17ej
p994
asa(dp995
g2
S'1195'
p996
sg4
(lp997
Vreference/ml/X17eg
p998
asa(dp999
g2
S'3344'
p1000
sg4
(lp1001
Vconf/bibm/ErdogduTAPDR11
p1002
asa(dp1003
g2
S'1696'
p1004
sg4
(lp1005
Vreference/ml/FurnkranzH17
p1006
asa(dp1007
g2
S'918'
p1008
sg4
(lp1009
Vjournals/jcisd/AllenKWC82
p1010
asa(dp1011
g2
S'1695'
p1012
sg4
(lp1013
Vreference/ml/Branke17
p1014
asa(dp1015
g2
S'2458'
p1016
sg4
(lp1017
Vreference/ml/Webb17c
p1018
asa(dp1019
g2
S'1759'
p1020
sg4
(lp1021
Vreference/ml/X17iq
p1022
asa(dp1023
g2
S'1758'
p1024
sg4
(lp1025
Vreference/ml/X17ir
p1026
asa(dp1027
g2
S'1757'
p1028
sg4
(lp1029
Vreference/ml/X17is
p1030
aVreference/ml/X10id
p1031
asa(dp1032
g2
S'1756'
p1033
sg4
(lp1034
Vreference/ml/X17it
p1035
asa(dp1036
g2
S'1755'
p1037
sg4
(lp1038
Vreference/ml/X17iu
p1039
asa(dp1040
g2
S'1754'
p1041
sg4
(lp1042
Vreference/ml/X17iv
p1043
asa(dp1044
g2
S'1753'
p1045
sg4
(lp1046
Vreference/ml/X17iw
p1047
asa(dp1048
g2
S'1791'
p1049
sg4
(lp1050
Vjournals/jcisd/StrongSS79
p1051
asa(dp1052
g2
S'1751'
p1053
sg4
(lp1054
Vreference/ml/X17iy
p1055
asa(dp1056
g2
S'1177'
p1057
sg4
(lp1058
Vreference/ml/X17fk
p1059
asa(dp1060
g2
S'1176'
p1061
sg4
(lp1062
Vreference/ml/X17fb
p1063
asa(dp1064
g2
S'1175'
p1065
sg4
(lp1066
Vreference/ml/X17fc
p1067
asa(dp1068
g2
S'2706'
p1069
sg4
(lp1070
Vjournals/jcisd/BaberH92
p1071
asa(dp1072
g2
S'1734'
p1073
sg4
(lp1074
Vseries/sci/DraminskiKKK10
p1075
asa(dp1076
g2
S'1170'
p1077
sg4
(lp1078
Vreference/ml/X17fl
p1079
asa(dp1080
g2
S'1270'
p1081
sg4
(lp1082
Vreference/ml/X17qs
p1083
asa(dp1084
g2
S'1816'
p1085
sg4
(lp1086
Vjournals/jmlr/VarshneyW10
p1087
asa(dp1088
g2
S'3342'
p1089
sg4
(lp1090
Vconf/kes/FarquadRR10
p1091
asa(dp1092
g2
S'1277'
p1093
sg4
(lp1094
Vreference/ml/Poupart17
p1095
asa(dp1096
g2
S'3709'
p1097
sg4
(lp1098
Vseries/sci/WojtusiakK10
p1099
asa(dp1100
g2
S'841'
p1101
sg4
(lp1102
Vconf/scai/RussK11
p1103
asa(dp1104
g2
S'1887'
p1105
sg4
(lp1106
Vjournals/dsj/JohanssonMN03
p1107
asa(dp1108
g2
S'1886'
p1109
sg4
(lp1110
Vseries/cogtech/Wittig11
p1111
asa(dp1112
g2
S'1884'
p1113
sg4
(lp1114
Vseries/sci/SleemanAMKS10
p1115
asa(dp1116
g2
S'3706'
p1117
sg4
(lp1118
Vjournals/jcisd/RusinkoSNHBV89
p1119
asa(dp1120
g2
S'3707'
p1121
sg4
(lp1122
Vconf/amt/HuYH10
p1123
asa(dp1124
g2
S'1881'
p1125
sg4
(lp1126
Vjournals/jcisd/VoigtGB00
p1127
asa(dp1128
g2
S'1880'
p1129
sg4
(lp1130
Vreference/ml/VilaltaGBS17
p1131
asa(dp1132
g2
S'3333'
p1133
sg4
(lp1134
Vjournals/mss/RegenwetterGM02
p1135
asa(dp1136
g2
S'1491'
p1137
sg4
(lp1138
Vreference/ml/X17if
p1139
asa(dp1140
g2
S'947'
p1141
sg4
(lp1142
Vreference/ml/X17ju
p1143
asa(dp1144
g2
S'944'
p1145
sg4
(lp1146
Vreference/ml/X17jy
p1147
asa(dp1148
g2
S'945'
p1149
sg4
(lp1150
Vreference/ml/Jain017b
p1151
asa(dp1152
g2
S'942'
p1153
sg4
(lp1154
Vreference/ml/X17jm
p1155
asa(dp1156
g2
S'943'
p1157
sg4
(lp1158
Vreference/ml/X17jx
p1159
asa(dp1160
g2
S'940'
p1161
sg4
(lp1162
Vreference/ml/X17jo
p1163
asa(dp1164
g2
S'941'
p1165
sg4
(lp1166
Vconf/icip/SaboiaCR11
p1167
asa(dp1168
g2
S'1058'
p1169
sg4
(lp1170
Vjournals/ml/Flach11
p1171
asa(dp1172
g2
S'1470'
p1173
sg4
(lp1174
Vreference/ml/Ting17a
p1175
asa(dp1176
g2
S'2539'
p1177
sg4
(lp1178
Vreference/ml/X17mf
p1179
asa(dp1180
g2
S'1364'
p1181
sg4
(lp1182
Vjournals/jcisd/Carter80
p1183
asa(dp1184
g2
S'2372'
p1185
sg4
(lp1186
Vconf/icpp/MerajiT10
p1187
asa(dp1188
g2
S'877'
p1189
sg4
(lp1190
Vjournals/isf/YuanLGX10
p1191
asa(dp1192
g2
S'2532'
p1193
sg4
(lp1194
Vreference/ml/X17lx
p1195
asa(dp1196
g2
S'3224'
p1197
sg4
(lp1198
Vjournals/corr/abs-1203-0160
p1199
asa(dp1200
g2
S'2530'
p1201
sg4
(lp1202
Vconf/edbt/2004
p1203
asa(dp1204
g2
S'1479'
p1205
sg4
(lp1206
Vjournals/jmlr/GorodetskyS10
p1207
asa(dp1208
g2
S'1577'
p1209
sg4
(lp1210
Vjournals/jcisd/XueGB99
p1211
asa(dp1212
g2
S'2537'
p1213
sg4
(lp1214
Vreference/ml/X17ml
p1215
asa(dp1216
g2
S'2534'
p1217
sg4
(lp1218
Vreference/ml/X17mj
p1219
asa(dp1220
g2
S'2535'
p1221
sg4
(lp1222
Vreference/ml/X17mi
p1223
aVseries/synthesis/2016Chen
p1224
asa(dp1225
g2
S'2712'
p1226
sg4
(lp1227
Vreference/ml/X17mv
p1228
asa(dp1229
g2
S'2713'
p1230
sg4
(lp1231
Vreference/ml/X17mu
p1232
asa(dp1233
g2
S'2710'
p1234
sg4
(lp1235
Vreference/ml/X17mp
p1236
asa(dp1237
g2
S'3341'
p1238
sg4
(lp1239
Vconf/propor/ZavarellaTLPAS10
p1240
asa(dp1241
g2
S'2716'
p1242
sg4
(lp1243
Vreference/ml/X17nb
p1244
asa(dp1245
g2
S'819'
p1246
sg4
(lp1247
Vreference/ml/X17di
p1248
asa(dp1249
g2
S'1302'
p1250
sg4
(lp1251
Vconf/semweb/SpohrHC11
p1252
asa(dp1253
g2
S'2715'
p1254
sg4
(lp1255
Vreference/ml/X17mt
p1256
asa(dp1257
g2
S'2653'
p1258
sg4
(lp1259
Vconf/iaai/ShahabdeenBN10
p1260
asa(dp1261
g2
S'2652'
p1262
sg4
(lp1263
Vreference/ml/X17gr
p1264
asa(dp1265
g2
S'2718'
p1266
sg4
(lp1267
Vreference/ml/X17my
p1268
asa(dp1269
g2
S'2719'
p1270
sg4
(lp1271
Vreference/ml/X17mw
p1272
asa(dp1273
g2
S'2491'
p1274
sg4
(lp1275
Vreference/ml/X17id
p1276
asa(dp1277
g2
S'3435'
p1278
sg4
(lp1279
Vreference/ml/X17eh
p1280
asa(dp1281
g2
S'3414'
p1282
sg4
(lp1283
Vjournals/jmlr/WangSP11
p1284
asa(dp1285
g2
S'1224'
p1286
sg4
(lp1287
Vjournals/concurrency/SkvoretzSB92
p1288
asa(dp1289
g2
S'1499'
p1290
sg4
(lp1291
Vreference/ml/X17io
p1292
asa(dp1293
g2
S'497'
p1294
sg4
(lp1295
Vjournals/datascience/Wolf03
p1296
asa(dp1297
g2
S'493'
p1298
sg4
(lp1299
Vconf/iccS/HammamiTC04
p1300
asa(dp1301
g2
S'1833'
p1302
sg4
(lp1303
Vreference/ml/Matwin17
p1304
aVreference/ml/Matwin10
p1305
asa(dp1306
g2
S'3849'
p1307
sg4
(lp1308
Vjournals/jcisd/Williams77
p1309
asa(dp1310
g2
S'1836'
p1311
sg4
(lp1312
Vreference/ml/Timmis17
p1313
asa(dp1314
g2
S'1221'
p1315
sg4
(lp1316
Vjournals/jcisd/BarczaKWK85
p1317
asa(dp1318
g2
S'1834'
p1319
sg4
(lp1320
Vreference/ml/PutermanP17
p1321
asa(dp1322
g2
S'3732'
p1323
sg4
(lp1324
Vjournals/jcisd/ParkarP99
p1325
asa(dp1326
g2
S'3794'
p1327
sg4
(lp1328
Vconf/icalt/TrabelsiF10
p1329
asa(dp1330
g2
S'3797'
p1331
sg4
(lp1332
Vjournals/jcisd/ChenRTY99
p1333
asa(dp1334
g2
S'3796'
p1335
sg4
(lp1336
Vconf/dils/LacroixMNR04
p1337
asa(dp1338
g2
S'3186'
p1339
sg4
(lp1340
Vreference/ml/X17n
p1341
asa(dp1342
g2
S'3793'
p1343
sg4
(lp1344
Vconf/IEEEcit/OhtaH11
p1345
asa(dp1346
g2
S'1371'
p1347
sg4
(lp1348
Vconf/sccc/HoltsRA10
p1349
asa(dp1350
g2
S'1370'
p1351
sg4
(lp1352
Vconf/aaaiss/GreenF10
p1353
asa(dp1354
g2
S'1373'
p1355
sg4
(lp1356
g71
asa(dp1357
g2
S'2405'
p1358
sg4
(lp1359
Vreference/ml/Jain017a
p1360
asa(dp1361
g2
S'2402'
p1362
sg4
(lp1363
Vjournals/jmlr/MannM10
p1364
asa(dp1365
g2
S'1376'
p1366
sg4
(lp1367
Vconf/iccS/WaiyamaiSR04
p1368
asa(dp1369
g2
S'933'
p1370
sg4
(lp1371
Vreference/ml/X17kh
p1372
asa(dp1373
g2
S'1378'
p1374
sg4
(lp1375
Vjournals/dsj/MuralidharSP01
p1376
asa(dp1377
g2
S'937'
p1378
sg4
(lp1379
Vreference/ml/X17jp
p1380
asa(dp1381
g2
S'935'
p1382
sg4
(lp1383
Vreference/ml/X17jr
p1384
asa(dp1385
g2
S'2409'
p1386
sg4
(lp1387
Vreference/ml/FlenerS17a
p1388
asa(dp1389
g2
S'3835'
p1390
sg4
(lp1391
Vconf/afips/Armor72
p1392
asa(dp1393
g2
S'3830'
p1394
sg4
(lp1395
Vjournals/jcisd/VillarrealMEM75
p1396
asa(dp1397
g2
S'1690'
p1398
sg4
(lp1399
Vjournals/jcisd/PerryG92
p1400
asa(dp1401
g2
S'3832'
p1402
sg4
(lp1403
Vjournals/ml/ZahalkaZ11
p1404
asa(dp1405
g2
S'2451'
p1406
sg4
(lp1407
Vconf/fmldo/1996
p1408
asa(dp1409
g2
S'2746'
p1410
sg4
(lp1411
Vconf/ieaaie/Stibor10
p1412
asa(dp1413
g2
S'455'
p1414
sg4
(lp1415
Vjournals/jcisd/Kirschenbaum80
p1416
asa(dp1417
g2
S'1630'
p1418
sg4
(lp1419
Vreference/ml/X17jw
p1420
asa(dp1421
g2
S'3424'
p1422
sg4
(lp1423
Vjournals/jcisd/Hall91
p1424
asa(dp1425
g2
S'1228'
p1426
sg4
(lp1427
Vreference/ml/X17fd
p1428
asa(dp1429
g2
S'3804'
p1430
sg4
(lp1431
Vjournals/jcisd/DragoK93
p1432
asa(dp1433
g2
S'3562'
p1434
sg4
(lp1435
Vconf/ncca/MarinovA11
p1436
asa(dp1437
g2
S'3563'
p1438
sg4
(lp1439
Vconf/recsys/BenchettaraKR10
p1440
asa(dp1441
g2
S'3248'
p1442
sg4
(lp1443
Vreference/ml/QuadriantoB17a
p1444
asa(dp1445
g2
S'3566'
p1446
sg4
(lp1447
Vconf/globecom/PuljizPH11
p1448
asa(dp1449
g2
S'3567'
p1450
sg4
(lp1451
Vjournals/jcisd/BarkerBK93
p1452
asa(dp1453
g2
S'3242'
p1454
sg4
(lp1455
Vconf/osdi/2010slaml
p1456
asa(dp1457
g2
S'3241'
p1458
sg4
(lp1459
Vconf/igarss/BruzzoneP10
p1460
asa(dp1461
g2
S'2319'
p1462
sg4
(lp1463
Vjournals/jmlr/LanckrietGBJ02
p1464
asa(dp1465
g2
S'3246'
p1466
sg4
(lp1467
Vjournals/jcisd/PodolyanWK10
p1468
asa(dp1469
g2
S'3244'
p1470
sg4
(lp1471
Vjournals/jcisd/SpadacciniH94
p1472
asa(dp1473
g2
S'3841'
p1474
sg4
(lp1475
Vjournals/jcisd/TrepalinYDZF95
p1476
asa(dp1477
g2
S'3840'
p1478
sg4
(lp1479
Vconf/rules/95
p1480
asa(dp1481
g2
S'3843'
p1482
sg4
(lp1483
Vjournals/jmlr/YuanCHL10
p1484
asa(dp1485
g2
S'829'
p1486
sg4
(lp1487
Vreference/ml/X17db
p1488
asa(dp1489
g2
S'3844'
p1490
sg4
(lp1491
Vjournals/jmlr/RigolletT11a
p1492
asa(dp1493
g2
S'3847'
p1494
sg4
(lp1495
Vjournals/datascience/Anderson04
p1496
asa(dp1497
g2
S'1060'
p1498
sg4
(lp1499
Vreference/ml/PageN17
p1500
asa(dp1501
g2
S'825'
p1502
sg4
(lp1503
Vreference/ml/X17dg
p1504
asa(dp1505
g2
S'370'
p1506
sg4
(lp1507
Vreference/ml/X17gv
p1508
asa(dp1509
g2
S'372'
p1510
sg4
(lp1511
Vjournals/jmlr/YuanW10
p1512
asa(dp1513
g2
S'821'
p1514
sg4
(lp1515
Vreference/ml/X17dk
p1516
asa(dp1517
g2
S'823'
p1518
sg4
(lp1519
Vreference/ml/X17de
p1520
asa(dp1521
g2
S'1314'
p1522
sg4
(lp1523
Vjournals/jcisd/Rowlett75
p1524
asa(dp1525
g2
S'1334'
p1526
sg4
(lp1527
Vjournals/jcisd/HelmanHCR86
p1528
asa(dp1529
g2
S'2909'
p1530
sg4
(lp1531
Vjournals/jcisd/HeidornHN96
p1532
asa(dp1533
g2
S'393'
p1534
sg4
(lp1535
Vjournals/ijcat/HowarthKEK10
p1536
asa(dp1537
g2
S'2440'
p1538
sg4
(lp1539
Vjournals/jcisd/SettleDKP89
p1540
asa(dp1541
g2
S'390'
p1542
sg4
(lp1543
Vjournals/jcisd/RahmanILG01
p1544
asa(dp1545
g2
S'1486'
p1546
sg4
(lp1547
Vreference/ml/Kavka17
p1548
asa(dp1549
g2
S'3150'
p1550
sg4
(lp1551
Vjournals/jcisd/Sheridan03
p1552
asa(dp1553
g2
S'1484'
p1554
sg4
(lp1555
Vconf/mdm/2003
p1556
asa(dp1557
g2
S'3306'
p1558
sg4
(lp1559
Vreference/ml/X17cz
p1560
asa(dp1561
g2
S'83'
p1562
sg4
(lp1563
Vjournals/jcisd/Williams75
p1564
asa(dp1565
g2
S'3304'
p1566
sg4
(lp1567
Vreference/ml/X17cy
p1568
asa(dp1569
g2
S'1488'
p1570
sg4
(lp1571
Vreference/ml/Torgo17a
p1572
asa(dp1573
g2
S'3302'
p1574
sg4
(lp1575
Vreference/ml/X17cd
p1576
aVreference/ml/X10cb
p1577
asa(dp1578
g2
S'85'
p1579
sg4
(lp1580
Vreference/ml/QuadriantoB17b
p1581
asa(dp1582
g2
S'1713'
p1583
sg4
(lp1584
Vjournals/sadm/AkovaDDHBRR10
p1585
asa(dp1586
g2
S'1117'
p1587
sg4
(lp1588
Vjournals/jcisd/Raman00a
p1589
asa(dp1590
g2
S'3309'
p1591
sg4
(lp1592
Vreference/ml/X17cw
p1593
asa(dp1594
g2
S'2413'
p1595
sg4
(lp1596
Vconf/iconip/MatsuzakiSW11
p1597
asa(dp1598
g2
S'1658'
p1599
sg4
(lp1600
Vjournals/jcisd/SatohF99
p1601
asa(dp1602
g2
S'1659'
p1603
sg4
(lp1604
Vjournals/jmlr/BalasubramanianDL11a
p1605
asa(dp1606
g2
S'7'
p1607
sg4
(lp1608
Vjournals/nar/Gonzalez-CoutoHD01
p1609
asa(dp1610
g2
S'2825'
p1611
sg4
(lp1612
Vjournals/jcisd/DelaneyMMSTV93
p1613
asa(dp1614
g2
S'3592'
p1615
sg4
(lp1616
Vjournals/jcisd/GautzschZ94
p1617
asa(dp1618
g2
S'1657'
p1619
sg4
(lp1620
g1151
asa(dp1621
g2
S'2414'
p1622
sg4
(lp1623
Vreference/ml/X17hx
p1624
asa(dp1625
g2
S'586'
p1626
sg4
(lp1627
Vreference/ml/X17hi
p1628
asa(dp1629
g2
S'3214'
p1630
sg4
(lp1631
Vreference/ml/X17fh
p1632
asa(dp1633
g2
S'584'
p1634
sg4
(lp1635
Vreference/ml/X17hg
p1636
asa(dp1637
g2
S'585'
p1638
sg4
(lp1639
Vreference/ml/X17hf
p1640
asa(dp1641
g2
S'582'
p1642
sg4
(lp1643
Vconf/mlsb/2009
p1644
asa(dp1645
g2
S'3660'
p1646
sg4
(lp1647
Vjournals/jmlr/BaehrensSHKHM10
p1648
asa(dp1649
g2
S'580'
p1650
sg4
(lp1651
Vjournals/jcisd/DuLY02
p1652
asa(dp1653
g2
S'3746'
p1654
sg4
(lp1655
Vreference/ml/Sipper17a
p1656
asa(dp1657
g2
S'3744'
p1658
sg4
(lp1659
Vjournals/jcisd/AllcockL78
p1660
asa(dp1661
g2
S'3620'
p1662
sg4
(lp1663
Vjournals/jcisd/Prewitt75
p1664
asa(dp1665
g2
S'3742'
p1666
sg4
(lp1667
Vjournals/jcisd/Sargent91
p1668
asa(dp1669
g2
S'3216'
p1670
sg4
(lp1671
Vconf/icmla/WeissBLBZ10
p1672
asa(dp1673
g2
S'3740'
p1674
sg4
(lp1675
Vjournals/datamine/BrownM00
p1676
asa(dp1677
g2
S'3741'
p1678
sg4
(lp1679
Vreference/ml/Smart17
p1680
aVreference/ml/Smart10
p1681
asa(dp1682
g2
S'3153'
p1683
sg4
(lp1684
Vbooks/daglib/p/RubelKBKWHHB12
p1685
asa(dp1686
g2
S'3152'
p1687
sg4
(lp1688
Vreference/ml/Webb17e
p1689
asa(dp1690
g2
S'3151'
p1691
sg4
(lp1692
Vjournals/jcisd/Tsonopoulos97
p1693
asa(dp1694
g2
S'3217'
p1695
sg4
(lp1696
Vconf/cidu/MallyaTG11
p1697
asa(dp1698
g2
S'3157'
p1699
sg4
(lp1700
Vjournals/jcisd/DuryLLBV01
p1701
asa(dp1702
g2
S'2839'
p1703
sg4
(lp1704
Vreference/ml/Vlachos17
p1705
asa(dp1706
g2
S'3154'
p1707
sg4
(lp1708
Vconf/crv/Artan11
p1709
asa(dp1710
g2
S'2837'
p1711
sg4
(lp1712
Vreference/ml/X17ne
p1713
asa(dp1714
g2
S'2836'
p1715
sg4
(lp1716
Vconf/sigir/LinLJY11
p1717
asa(dp1718
g2
S'2832'
p1719
sg4
(lp1720
Vjournals/jcisd/BrownM96
p1721
asa(dp1722
g2
S'1348'
p1723
sg4
(lp1724
Vjournals/bmcbi/NitschGOMM10
p1725
asa(dp1726
g2
S'2887'
p1727
sg4
(lp1728
Vreference/ml/X17cs
p1729
asa(dp1730
g2
S'3019'
p1731
sg4
(lp1732
Vreference/ml/Husbands17
p1733
asa(dp1734
g2
S'1432'
p1735
sg4
(lp1736
Vjournals/jcisd/TaylorK86
p1737
asa(dp1738
g2
S'1433'
p1739
sg4
(lp1740
Vconf/prib/WidmerTAKR10
p1741
asa(dp1742
g2
S'2578'
p1743
sg4
(lp1744
g497
ag498
asa(dp1745
g2
S'3013'
p1746
sg4
(lp1747
Vconf/pkdd/Berthold05
p1748
asa(dp1749
g2
S'3010'
p1750
sg4
(lp1751
Vconf/icadl/KrapivinAMBS10
p1752
asa(dp1753
g2
S'1981'
p1754
sg4
(lp1755
Vjournals/ml/Garcia-PedrajasCO10
p1756
asa(dp1757
g2
S'3016'
p1758
sg4
(lp1759
Vjournals/datascience/BreunigCSS03
p1760
asa(dp1761
g2
S'3014'
p1762
sg4
(lp1763
Vreference/ml/Tadepalli17
p1764
asa(dp1765
g2
S'3015'
p1766
sg4
(lp1767
Vconf/miccai/2011mlmi
p1768
asa(dp1769
g2
S'1260'
p1770
sg4
(lp1771
Vconf/massdata/StrittBFMVWS11
p1772
asa(dp1773
g2
S'1731'
p1774
sg4
(lp1775
Vjournals/jcisd/Ilten91
p1776
asa(dp1777
g2
S'2378'
p1778
sg4
(lp1779
Vconf/propor/FernandesSM10
p1780
asa(dp1781
g2
S'1382'
p1782
sg4
(lp1783
Vconf/incdm/GodskK11
p1784
asa(dp1785
g2
S'1008'
p1786
sg4
(lp1787
Vconf/ictai/FogelbergP10
p1788
asa(dp1789
g2
S'1007'
p1790
sg4
(lp1791
Vreference/ml/MichelucciO17
p1792
asa(dp1793
g2
S'2795'
p1794
sg4
(lp1795
Vconf/skg/TuSSZWY10
p1796
asa(dp1797
g2
S'2370'
p1798
sg4
(lp1799
Vjournals/jcisd/ShiFMOPFW98
p1800
asa(dp1801
g2
S'1001'
p1802
sg4
(lp1803
Vreference/ml/X17ib
p1804
asa(dp1805
g2
S'3593'
p1806
sg4
(lp1807
Vreference/ml/X17ab
p1808
asa(dp1809
g2
S'2899'
p1810
sg4
(lp1811
Vreference/ml/AbbeelN17
p1812
asa(dp1813
g2
S'1225'
p1814
sg4
(lp1815
Vconf/adbis/ZormanPB10
p1816
asa(dp1817
g2
S'3693'
p1818
sg4
(lp1819
Vjournals/jcisd/MoockHOA94
p1820
asa(dp1821
g2
S'1223'
p1822
sg4
(lp1823
Vreference/ml/Webb17i
p1824
asa(dp1825
g2
S'1222'
p1826
sg4
(lp1827
Vreference/ml/CaseJ17
p1828
aVreference/ml/CaseJ10
p1829
asa(dp1830
g2
S'3595'
p1831
sg4
(lp1832
Vreference/ml/RajnarayanW17
p1833
asa(dp1834
g2
S'3772'
p1835
sg4
(lp1836
Vjournals/ejasp/InceKKTL10
p1837
asa(dp1838
g2
S'451'
p1839
sg4
(lp1840
Vreference/ml/Craw17
p1841
asa(dp1842
g2
S'2457'
p1843
sg4
(lp1844
Vreference/ml/AbdallahDW17
p1845
asa(dp1846
g2
S'453'
p1847
sg4
(lp1848
Vreference/ml/Jain017
p1849
asa(dp1850
g2
S'2598'
p1851
sg4
(lp1852
Vreference/ml/StruyfB17
p1853
asa(dp1854
g2
S'2450'
p1855
sg4
(lp1856
Vreference/ml/Webb17j
p1857
asa(dp1858
g2
S'2452'
p1859
sg4
(lp1860
Vreference/ml/Webb17d
p1861
asa(dp1862
g2
S'1876'
p1863
sg4
(lp1864
Vjournals/jcisd/LavineDBK03
p1865
asa(dp1866
g2
S'1457'
p1867
sg4
(lp1868
Vjournals/jcisd/HuffenbergerW75
p1869
asa(dp1870
g2
S'1874'
p1871
sg4
(lp1872
Vjournals/mlc/HuangWL11
p1873
asa(dp1874
g2
S'3770'
p1875
sg4
(lp1876
Vjournals/jcisd/HamrickKB92
p1877
asa(dp1878
g2
S'1872'
p1879
sg4
(lp1880
Vjournals/jcisd/MatsuzakiNIH82
p1881
asa(dp1882
g2
S'1082'
p1883
sg4
(lp1884
Vjournals/jcisd/MurrallD90
p1885
asa(dp1886
g2
S'1736'
p1887
sg4
(lp1888
Vreference/ml/X17jk
p1889
asa(dp1890
g2
S'1879'
p1891
sg4
(lp1892
Vconf/cig/GalliLCL11
p1893
asa(dp1894
g2
S'2650'
p1895
sg4
(lp1896
Vjournals/jcisd/SettleWKPSB92
p1897
asa(dp1898
g2
S'2883'
p1899
sg4
(lp1900
Vreference/ml/X17fa
p1901
asa(dp1902
g2
S'974'
p1903
sg4
(lp1904
Vjournals/jcisd/WrightPH94
p1905
asa(dp1906
g2
S'972'
p1907
sg4
(lp1908
Vreference/ml/Wirth17
p1909
asa(dp1910
g2
S'3691'
p1911
sg4
(lp1912
Vjournals/jcisd/TerryBM99
p1913
asa(dp1914
g2
S'1080'
p1915
sg4
(lp1916
Vconf/iciar/MohammedWS10
p1917
asa(dp1918
g2
S'978'
p1919
sg4
(lp1920
Vjournals/jcisd/MawH00
p1921
asa(dp1922
g2
S'1503'
p1923
sg4
(lp1924
Vjournals/jmlr/El-YanivW10
p1925
asa(dp1926
g2
S'1501'
p1927
sg4
(lp1928
Vconf/seke/NoorianBD11
p1929
asa(dp1930
g2
S'3596'
p1931
sg4
(lp1932
Vjournals/jmlr/AliferisSTMK10
p1933
asa(dp1934
g2
S'1507'
p1935
sg4
(lp1936
Vreference/ml/X17hq
p1937
asa(dp1938
g2
S'1504'
p1939
sg4
(lp1940
Vjournals/corr/abs-1112-3877
p1941
asa(dp1942
g2
S'1508'
p1943
sg4
(lp1944
Vreference/ml/X17hr
p1945
asa(dp1946
g2
S'3705'
p1947
sg4
(lp1948
Vconf/hais/TellaecheAIM10
p1949
asa(dp1950
g2
S'2466'
p1951
sg4
(lp1952
Vjournals/jcisd/QiaoHZGX02
p1953
asa(dp1954
g2
S'311'
p1955
sg4
(lp1956
Vjournals/jcisd/GunerHP92
p1957
asa(dp1958
g2
S'658'
p1959
sg4
(lp1960
Vjournals/fac/FalaschiS17
p1961
aVjournals/pomacs/ChaintreauGZ17
p1962
asa(dp1963
g2
S'3088'
p1964
sg4
(lp1965
Vjournals/csl/ShinCK10
p1966
asa(dp1967
g2
S'2620'
p1968
sg4
(lp1969
Vjournals/datamine/MacedoCB00
p1970
asa(dp1971
g2
S'1367'
p1972
sg4
(lp1973
Vconf/compsac/QinZWWZH11
p1974
asa(dp1975
g2
S'2626'
p1976
sg4
(lp1977
Vjournals/jmlr/HuangHCL10
p1978
asa(dp1979
g2
S'2627'
p1980
sg4
(lp1981
Vjournals/jcisd/Westbrook93
p1982
asa(dp1983
g2
S'2624'
p1984
sg4
(lp1985
Vreference/ml/ChandolaBK17
p1986
aVreference/ml/Cohn17
p1987
aVseries/synthesis/2012Settles
p1988
asa(dp1989
g2
S'3872'
p1990
sg4
(lp1991
Vjournals/jcisd/BraunGMZ93
p1992
asa(dp1993
g2
S'3874'
p1994
sg4
(lp1995
Vreference/ml/X17tm
p1996
asa(dp1997
g2
S'3875'
p1998
sg4
(lp1999
Vreference/ml/ChristenW17
p2000
asa(dp2001
g2
S'3527'
p2002
sg4
(lp2003
Vjournals/jcisd/FletcherMP96
p2004
asa(dp2005
g2
S'3525'
p2006
sg4
(lp2007
Vjournals/sigsoft/MalhotraKS10
p2008
asa(dp2009
g2
S'3522'
p2010
sg4
(lp2011
Vreference/ml/X17gx
p2012
asa(dp2013
g2
S'3289'
p2014
sg4
(lp2015
Vreference/ml/X17co
p2016
asa(dp2017
g2
S'3288'
p2018
sg4
(lp2019
Vjournals/jcisd/DuvenbeckZ93a
p2020
asa(dp2021
g2
S'3285'
p2022
sg4
(lp2023
Vreference/ml/BrazdilVGS17
p2024
asa(dp2025
g2
S'1912'
p2026
sg4
(lp2027
Vreference/ml/X17sf
p2028
asa(dp2029
g2
S'2656'
p2030
sg4
(lp2031
Vjournals/jcisd/VogtVK03
p2032
asa(dp2033
g2
S'2112'
p2034
sg4
(lp2035
Vjournals/jmlr/ZhangWLJ12
p2036
asa(dp2037
g2
S'3281'
p2038
sg4
(lp2039
Vjournals/datascience/Namyslowska-WilczynskaW02
p2040
asa(dp2041
g2
S'3280'
p2042
sg4
(lp2043
Vjournals/jcisd/NelsonHBB75
p2044
asa(dp2045
g2
S'3884'
p2046
sg4
(lp2047
Vreference/ml/FurnkranzH17a
p2048
asa(dp2049
g2
S'919'
p2050
sg4
(lp2051
Vjournals/lalc/JockersW10
p2052
asa(dp2053
g2
S'3449'
p2054
sg4
(lp2055
Vreference/ml/Garriga17
p2056
asa(dp2057
g2
S'3448'
p2058
sg4
(lp2059
Vconf/bmei/ZengJZXG11
p2060
asa(dp2061
g2
S'1656'
p2062
sg4
(lp2063
Vjournals/jcisd/SatohF95
p2064
asa(dp2065
g2
S'3277'
p2066
sg4
(lp2067
Vjournals/jcisd/Vogue96
p2068
asa(dp2069
g2
S'860'
p2070
sg4
(lp2071
Vjournals/jcisd/WangN89
p2072
asa(dp2073
g2
S'863'
p2074
sg4
(lp2075
Vjournals/jcisd/Moulton93
p2076
asa(dp2077
g2
S'949'
p2078
sg4
(lp2079
Vreference/ml/X17kc
p2080
asa(dp2081
g2
S'3274'
p2082
sg4
(lp2083
Vseries/sci/Maloof10
p2084
asa(dp2085
g2
S'867'
p2086
sg4
(lp2087
Vreference/ml/Furnkranz17h
p2088
aVreference/ml/Furnkranz10c
p2089
asa(dp2090
g2
S'2757'
p2091
sg4
(lp2092
Vconf/maics/VanderbeckBO11
p2093
asa(dp2094
g2
S'1598'
p2095
sg4
(lp2096
Vjournals/jcisd/Small92
p2097
asa(dp2098
g2
S'3143'
p2099
sg4
(lp2100
Vjournals/jcisd/HallS96
p2101
asa(dp2102
g2
S'2752'
p2103
sg4
(lp2104
Vconf/biostec/SongAL10
p2105
asa(dp2106
g2
S'2751'
p2107
sg4
(lp2108
Vbooks/daglib/0078431
p2109
asa(dp2110
g2
S'1819'
p2111
sg4
(lp2112
Vconf/ssdbm/HinterbergerMG94
p2113
asa(dp2114
g2
S'1243'
p2115
sg4
(lp2116
Vjournals/jcisd/CaiH98
p2117
asa(dp2118
g2
S'3115'
p2119
sg4
(lp2120
Vjournals/bmcsb/PlaimasEK10
p2121
asa(dp2122
g2
S'2758'
p2123
sg4
(lp2124
Vjournals/gis/MacEachrenWEHM99
p2125
asa(dp2126
g2
S'880'
p2127
sg4
(lp2128
Vconf/icmla/NalbantovDRLS11
p2129
asa(dp2130
g2
S'569'
p2131
sg4
(lp2132
Vjournals/ipm/Vleduts-Stokolov82
p2133
asa(dp2134
g2
S'3113'
p2135
sg4
(lp2136
Vconf/ijcnn/RomeroVG10
p2137
aVseries/sci/RomeroVG10
p2138
asa(dp2139
g2
S'889'
p2140
sg4
(lp2141
Vjournals/jcisd/OConnor77
p2142
asa(dp2143
g2
S'888'
p2144
sg4
(lp2145
Vjournals/jcisd/TerryM98
p2146
asa(dp2147
g2
S'1604'
p2148
sg4
(lp2149
Vreference/ml/X17js
p2150
asa(dp2151
g2
S'2824'
p2152
sg4
(lp2153
Vconf/kesamsta/OSheaBC10
p2154
asa(dp2155
g2
S'3600'
p2156
sg4
(lp2157
Vseries/synthesis/2010Szepesvari
p2158
asa(dp2159
g2
S'3149'
p2160
sg4
(lp2161
Vconf/mascots/BuRX11
p2162
asa(dp2163
g2
S'20'
p2164
sg4
(lp2165
Vjournals/cmpb/VoigtDYEL10
p2166
asa(dp2167
g2
S'3110'
p2168
sg4
(lp2169
Vjournals/scientometrics/Artus96
p2170
asa(dp2171
g2
S'1519'
p2172
sg4
(lp2173
Vjournals/jcisd/ClarkFM96
p2174
asa(dp2175
g2
S'1968'
p2176
sg4
(lp2177
Vconf/dmin/MballoM10
p2178
asa(dp2179
g2
S'1616'
p2180
sg4
(lp2181
Vjournals/jcisd/Drie97
p2182
asa(dp2183
g2
S'1965'
p2184
sg4
(lp2185
Vconf/cinq/2004
p2186
asa(dp2187
g2
S'3238'
p2188
sg4
(lp2189
Vreference/ml/X17ex
p2190
asa(dp2191
g2
S'1967'
p2192
sg4
(lp2193
Vreference/ml/X17ff
p2194
asa(dp2195
g2
S'1612'
p2196
sg4
(lp2197
Vreference/ml/X17jq
p2198
asa(dp2199
g2
S'2538'
p2200
sg4
(lp2201
Vreference/ml/X17me
p2202
asa(dp2203
g2
S'3712'
p2204
sg4
(lp2205
Vjournals/jcisd/Rispin81
p2206
asa(dp2207
g2
S'3675'
p2208
sg4
(lp2209
Vconf/bncod/ToddMB84
p2210
asa(dp2211
g2
S'562'
p2212
sg4
(lp2213
Vjournals/jcisd/Simmons99
p2214
asa(dp2215
g2
S'2873'
p2216
sg4
(lp2217
Vjournals/pdln/ArregiCIGSZ10
p2218
asa(dp2219
g2
S'3628'
p2220
sg4
(lp2221
Vreference/ml/X17p
p2222
asa(dp2223
g2
S'2872'
p2224
sg4
(lp2225
Vconf/isda/JungA11
p2226
asa(dp2227
g2
S'2870'
p2228
sg4
(lp2229
Vreference/ml/X17fg
p2230
asa(dp2231
g2
S'2877'
p2232
sg4
(lp2233
Vseries/sci/CeciAM10
p2234
asa(dp2235
g2
S'3621'
p2236
sg4
(lp2237
Vjournals/jcisd/BaxterMWLSBPW00
p2238
asa(dp2239
g2
S'2819'
p2240
sg4
(lp2241
Vreference/ml/Silva17
p2242
asa(dp2243
g2
S'2879'
p2244
sg4
(lp2245
Vconf/sdt/1984
p2246
asa(dp2247
g2
S'3622'
p2248
sg4
(lp2249
Vjournals/pieee/ZhangIT11
p2250
asa(dp2251
g2
S'3625'
p2252
sg4
(lp2253
Vjournals/jcisd/XuA03
p2254
asa(dp2255
g2
S'3476'
p2256
sg4
(lp2257
Vjournals/jcisd/Csizmadia00
p2258
asa(dp2259
g2
S'2492'
p2260
sg4
(lp2261
Vconf/iassist/Doorn05
p2262
asa(dp2263
g2
S'77'
p2264
sg4
(lp2265
Vconf/icse/Cleland-HuangCGE10
p2266
asa(dp2267
g2
S'76'
p2268
sg4
(lp2269
Vconf/igarss/CloseWG11
p2270
asa(dp2271
g2
S'3357'
p2272
sg4
(lp2273
Vconf/mldm/2011
p2274
asa(dp2275
g2
S'74'
p2276
sg4
(lp2277
Vconf/dbtel/2001
p2278
asa(dp2279
g2
S'3350'
p2280
sg4
(lp2281
Vreference/ml/Fern17
p2282
asa(dp2283
g2
S'3353'
p2284
sg4
(lp2285
Vconf/sigmod/Tgieman93
p2286
asa(dp2287
g2
S'1572'
p2288
sg4
(lp2289
Vjournals/widm/BacarditL13
p2290
asa(dp2291
g2
S'2972'
p2292
sg4
(lp2293
Vseries/sci/2010-262
p2294
asa(dp2295
g2
S'3057'
p2296
sg4
(lp2297
Vreference/ml/X17bk
p2298
asa(dp2299
g2
S'3054'
p2300
sg4
(lp2301
Vreference/ml/X17bl
p2302
asa(dp2303
g2
S'3055'
p2304
sg4
(lp2305
Vreference/ml/X17bm
p2306
asa(dp2307
g2
S'3359'
p2308
sg4
(lp2309
Vconf/geos/Martins11
p2310
asa(dp2311
g2
S'1571'
p2312
sg4
(lp2313
Vreference/ml/X17fp
p2314
asa(dp2315
g2
S'2974'
p2316
sg4
(lp2317
Vjournals/ivc/RaducanuVL10
p2318
asa(dp2319
g2
S'2975'
p2320
sg4
(lp2321
Vconf/bicob/RasheedR11
p2322
asa(dp2323
g2
S'1042'
p2324
sg4
(lp2325
Vseries/sci/KacprzykS10
p2326
asa(dp2327
g2
S'504'
p2328
sg4
(lp2329
Vjournals/aim/WarrickHKP12
p2330
aVconf/iaai/WarrickHKP10
p2331
asa(dp2332
g2
S'1049'
p2333
sg4
(lp2334
Vreference/ml/LiuW17
p2335
asa(dp2336
g2
S'1048'
p2337
sg4
(lp2338
Vreference/ml/Buhmann17
p2339
asa(dp2340
g2
S'2955'
p2341
sg4
(lp2342
Vjournals/jcisd/Nagaraja97
p2343
asa(dp2344
g2
S'3027'
p2345
sg4
(lp2346
Vjournals/vldb/GaasterlandJR05
p2347
asa(dp2348
g2
S'1768'
p2349
sg4
(lp2350
Vjournals/jcisd/BauknechtZBLWSG96
p2351
asa(dp2352
g2
S'1685'
p2353
sg4
(lp2354
Vjournals/ml/DiegoMM10
p2355
asa(dp2356
g2
S'1689'
p2357
sg4
(lp2358
Vreference/ml/Ratnaparkhi17
p2359
asa(dp2360
g2
S'1688'
p2361
sg4
(lp2362
Vjournals/jcisd/Tominaga98
p2363
asa(dp2364
g2
S'1760'
p2365
sg4
(lp2366
Vreference/ml/X17ip
p2367
asa(dp2368
g2
S'1766'
p2369
sg4
(lp2370
Vjournals/jcisd/GinnTWFH97
p2371
asa(dp2372
g2
S'50'
p2373
sg4
(lp2374
Vjournals/db/BariffG82
p2375
asa(dp2376
g2
S'1143'
p2377
sg4
(lp2378
Vreference/ml/X17ld
p2379
asa(dp2380
g2
S'1141'
p2381
sg4
(lp2382
Vreference/ml/X17lk
p2383
asa(dp2384
g2
S'1146'
p2385
sg4
(lp2386
Vjournals/ml/Langley11
p2387
asa(dp2388
g2
S'3520'
p2389
sg4
(lp2390
Vconf/setn/KotaniY10
p2391
asa(dp2392
g2
S'1145'
p2393
sg4
(lp2394
Vreference/ml/X17lf
p2395
asa(dp2396
g2
S'3497'
p2397
sg4
(lp2398
Vjournals/jcisd/CundariR01
p2399
asa(dp2400
g2
S'1149'
p2401
sg4
(lp2402
Vreference/ml/X17ln
p2403
asa(dp2404
g2
S'1267'
p2405
sg4
(lp2406
Vjournals/siamjo/ByrdCNN11
p2407
asa(dp2408
g2
S'1266'
p2409
sg4
(lp2410
Vreference/ml/Miikkulainen17c
p2411
asa(dp2412
g2
S'1265'
p2413
sg4
(lp2414
Vseries/sci/2010-263
p2415
asa(dp2416
g2
S'1264'
p2417
sg4
(lp2418
Vconf/nato/93
p2419
asa(dp2420
g2
S'2095'
p2421
sg4
(lp2422
Vjournals/ml/JordanGJS99
p2423
asa(dp2424
g2
S'2954'
p2425
sg4
(lp2426
Vjournals/intr/Robbin95
p2427
asa(dp2428
g2
S'3658'
p2429
sg4
(lp2430
Vreference/ml/Keogh17
p2431
aVreference/ml/Keogh10
p2432
asa(dp2433
g2
S'2985'
p2434
sg4
(lp2435
Vconf/webist/Waltinger10a
p2436
asa(dp2437
g2
S'2092'
p2438
sg4
(lp2439
Vjournals/ml/AndrieuFDJ03
p2440
asa(dp2441
g2
S'3657'
p2442
sg4
(lp2443
Vjournals/widm/Hullermeier11
p2444
asa(dp2445
g2
S'1913'
p2446
sg4
(lp2447
Vreference/ml/X17sg
p2448
asa(dp2449
g2
S'2717'
p2450
sg4
(lp2451
Vreference/ml/X17mz
p2452
asa(dp2453
g2
S'2525'
p2454
sg4
(lp2455
Vreference/ml/X17lr
p2456
asa(dp2457
g2
S'1547'
p2458
sg4
(lp2459
Vreference/ml/X17ly
p2460
asa(dp2461
g2
S'3128'
p2462
sg4
(lp2463
Vreference/ml/Munro17
p2464
asa(dp2465
g2
S'2526'
p2466
sg4
(lp2467
Vreference/ml/X17lz
p2468
asa(dp2469
g2
S'2521'
p2470
sg4
(lp2471
Vreference/ml/X17lu
p2472
aVreference/ml/X10lf
p2473
aVreference/ml/X10lg
p2474
asa(dp2475
g2
S'2714'
p2476
sg4
(lp2477
Vconf/jurix/MaatKW10
p2478
asa(dp2479
g2
S'2523'
p2480
sg4
(lp2481
Vreference/ml/X17lp
p2482
asa(dp2483
g2
S'2489'
p2484
sg4
(lp2485
Vjournals/ml/BarrenoNJT10
p2486
asa(dp2487
g2
S'3283'
p2488
sg4
(lp2489
Vjournals/jcisd/MawH01
p2490
asa(dp2491
g2
S'3121'
p2492
sg4
(lp2493
Vjournals/tnsm/FrancoisASF10
p2494
asa(dp2495
g2
S'2482'
p2496
sg4
(lp2497
Vjournals/jcisd/WoodRG93
p2498
asa(dp2499
g2
S'2483'
p2500
sg4
(lp2501
Vconf/isd/1999
p2502
asa(dp2503
g2
S'3124'
p2504
sg4
(lp2505
Vjournals/chinaf/YaoZ02
p2506
asa(dp2507
g2
S'3125'
p2508
sg4
(lp2509
Vconf/icwsm/PennacchiottiP11
p2510
asa(dp2511
g2
S'3169'
p2512
sg4
(lp2513
Vjournals/artmed/DelenOK10
p2514
asa(dp2515
g2
S'3361'
p2516
sg4
(lp2517
Vjournals/jcisd/OHaraP91
p2518
asa(dp2519
g2
S'545'
p2520
sg4
(lp2521
Vjournals/tcbb/SehgalDNSE11
p2522
asa(dp2523
g2
S'8'
p2524
sg4
(lp2525
Vreference/ml/JinH17g
p2526
asa(dp2527
g2
S'3176'
p2528
sg4
(lp2529
Vreference/ml/OrbanzT17
p2530
asa(dp2531
g2
S'1461'
p2532
sg4
(lp2533
Vjournals/jcisd/FangW02
p2534
asa(dp2535
g2
S'1460'
p2536
sg4
(lp2537
Vseries/sci/Bratko10
p2538
asa(dp2539
g2
S'521'
p2540
sg4
(lp2541
Vconf/kbse/ChenHX11
p2542
asa(dp2543
g2
S'1315'
p2544
sg4
(lp2545
Vjournals/chinaf/ChenYBZZC02
p2546
asa(dp2547
g2
S'2467'
p2548
sg4
(lp2549
Vjournals/jcisd/RuizSG93
p2550
asa(dp2551
g2
S'991'
p2552
sg4
(lp2553
Vreference/ml/Morik17
p2554
aVreference/ml/Morik10
p2555
asa(dp2556
g2
S'990'
p2557
sg4
(lp2558
Vreference/ml/X17hv
p2559
asa(dp2560
g2
S'1311'
p2561
sg4
(lp2562
Vreference/ml/LingS17a
p2563
asa(dp2564
g2
S'1310'
p2565
sg4
(lp2566
Vjournals/jcisd/AllenBCH95
p2567
asa(dp2568
g2
S'2705'
p2569
sg4
(lp2570
Vconf/icannga/SaarikoskiLJJ11
p2571
asa(dp2572
g2
S'2969'
p2573
sg4
(lp2574
Vconf/fuzzIEEE/BalazsBK10
p2575
asa(dp2576
g2
S'2707'
p2577
sg4
(lp2578
Vreference/ml/Mladenic17
p2579
asa(dp2580
g2
S'2661'
p2581
sg4
(lp2582
Vjournals/jcisd/GreeneKSST94
p2583
asa(dp2584
g2
S'999'
p2585
sg4
(lp2586
Vreference/ml/X17ia
p2587
asa(dp2588
g2
S'998'
p2589
sg4
(lp2590
Vreference/ml/X17na
p2591
asa(dp2592
g2
S'1785'
p2593
sg4
(lp2594
Vreference/ml/X17mk
p2595
asa(dp2596
g2
S'3401'
p2597
sg4
(lp2598
Vseries/ais/DietterichBKS10
p2599
asa(dp2600
g2
S'3400'
p2601
sg4
(lp2602
Vjournals/jcisd/Wilhoit80
p2603
asa(dp2604
g2
S'3403'
p2605
sg4
(lp2606
Vconf/ike/Al-ModayanR10
p2607
asa(dp2608
g2
S'3405'
p2609
sg4
(lp2610
Vconf/dils/2004
p2611
asa(dp2612
g2
S'3404'
p2613
sg4
(lp2614
Vconf/dils/2005
p2615
asa(dp2616
g2
S'577'
p2617
sg4
(lp2618
Vjournals/jcisd/RaoSHC79
p2619
asa(dp2620
g2
S'3409'
p2621
sg4
(lp2622
Vjournals/jmlr/DingS10
p2623
asa(dp2624
g2
S'15'
p2625
sg4
(lp2626
Vjournals/jcisd/CookeS01
p2627
asa(dp2628
g2
S'2654'
p2629
sg4
(lp2630
Vjournals/jcisd/NicolaouTKBN02
p2631
asa(dp2632
g2
S'2445'
p2633
sg4
(lp2634
Vreference/ml/Hinton17a
p2635
asa(dp2636
g2
S'14'
p2637
sg4
(lp2638
Vjournals/jcisd/GoddenSB00
p2639
asa(dp2640
g2
S'3385'
p2641
sg4
(lp2642
Vjournals/ijmi/SchubartE00
p2643
aVconf/amia/SchubartE99
p2644
asa(dp2645
g2
S'1136'
p2646
sg4
(lp2647
Vjournals/jcisd/DuboisCP91
p2648
asa(dp2649
g2
S'520'
p2650
sg4
(lp2651
Vjournals/jcisd/Heaps75
p2652
asa(dp2653
g2
S'1188'
p2654
sg4
(lp2655
Vreference/ml/X17ey
p2656
asa(dp2657
g2
S'2951'
p2658
sg4
(lp2659
Vconf/socpar/CallejaBMF11
p2660
asa(dp2661
g2
S'1407'
p2662
sg4
(lp2663
Vjournals/jcisd/ChenRY98
p2664
asa(dp2665
g2
S'1827'
p2666
sg4
(lp2667
Vjournals/datascience/Pogliani02
p2668
asa(dp2669
g2
S'1022'
p2670
sg4
(lp2671
Vconf/imf/Ziemniak11
p2672
asa(dp2673
g2
S'1821'
p2674
sg4
(lp2675
Vjournals/jcisd/Lefkovitz75
p2676
asa(dp2677
g2
S'928'
p2678
sg4
(lp2679
Vreference/ml/X17ka
p2680
asa(dp2681
g2
S'1579'
p2682
sg4
(lp2683
Vjournals/jmlr/PedregosaVGMTGBPWDVPCBPD11
p2684
asa(dp2685
g2
S'2798'
p2686
sg4
(lp2687
Vjournals/mlc/Wang10
p2688
asa(dp2689
g2
S'1389'
p2690
sg4
(lp2691
Vjournals/datascience/Tabuchi04
p2692
asa(dp2693
g2
S'920'
p2694
sg4
(lp2695
Vreference/ml/X17du
p2696
asa(dp2697
g2
S'921'
p2698
sg4
(lp2699
Vreference/ml/X17kf
p2700
asa(dp2701
g2
S'1404'
p2702
sg4
(lp2703
Vconf/ibm/1975
p2704
asa(dp2705
g2
S'1380'
p2706
sg4
(lp2707
Vjournals/jcisd/LeiZ02
p2708
asa(dp2709
g2
S'925'
p2710
sg4
(lp2711
Vreference/ml/X17kb
p2712
asa(dp2713
g2
S'2794'
p2714
sg4
(lp2715
Vreference/ml/X17kq
p2716
asa(dp2717
g2
S'927'
p2718
sg4
(lp2719
Vreference/ml/X17jz
p2720
asa(dp2721
g2
S'3580'
p2722
sg4
(lp2723
Vjournals/jbi/DangerSFR10
p2724
asa(dp2725
g2
S'3825'
p2726
sg4
(lp2727
Vconf/enase/ZhangYW11
p2728
asa(dp2729
g2
S'1029'
p2730
sg4
(lp2731
Vjournals/jods/2005-2
p2732
asa(dp2733
g2
S'1409'
p2734
sg4
(lp2735
Vjournals/jcisd/BoitenON95
p2736
asa(dp2737
g2
S'310'
p2738
sg4
(lp2739
Vreference/ml/Alexandrova-KabadjovaGM17
p2740
asa(dp2741
g2
S'2769'
p2742
sg4
(lp2743
Vjournals/jcisd/WangW00
p2744
asa(dp2745
g2
S'3815'
p2746
sg4
(lp2747
Vjournals/jcisd/XieTS00
p2748
asa(dp2749
g2
S'1920'
p2750
sg4
(lp2751
Vconf/tac/Castillo10
p2752
asa(dp2753
g2
S'809'
p2754
sg4
(lp2755
Vreference/ml/X17dx
p2756
asa(dp2757
g2
S'1922'
p2758
sg4
(lp2759
Vconf/bibe/HaasKRSS00
p2760
asa(dp2761
g2
S'3583'
p2762
sg4
(lp2763
Vjournals/ivs/X06
p2764
aVjournals/ivs/ChiuPSC05
p2765
asa(dp2766
g2
S'1925'
p2767
sg4
(lp2768
Vconf/ssdbm/RomanelloBBJLMPRS05
p2769
asa(dp2770
g2
S'3270'
p2771
sg4
(lp2772
Vreference/ml/X17es
p2773
asa(dp2774
g2
S'3271'
p2775
sg4
(lp2776
Vconf/acai/SinghA11
p2777
asa(dp2778
g2
S'3584'
p2779
sg4
(lp2780
Vjournals/jcisd/ODonohue75
p2781
asa(dp2782
g2
S'3370'
p2783
sg4
(lp2784
Vconf/flairs/RasorOD11
p2785
asa(dp2786
g2
S'369'
p2787
sg4
(lp2788
Vjournals/mlc/HeW11
p2789
asa(dp2790
g2
S'3279'
p2791
sg4
(lp2792
Vreference/ml/Dasgupta17
p2793
asa(dp2794
g2
S'3474'
p2795
sg4
(lp2796
Vconf/ida/1997
p2797
asa(dp2798
g2
S'833'
p2799
sg4
(lp2800
Vreference/ml/X17bn
p2801
asa(dp2802
g2
S'830'
p2803
sg4
(lp2804
Vreference/ml/X17dc
p2805
asa(dp2806
g2
S'831'
p2807
sg4
(lp2808
Vconf/ijcai/LacroixNRV03
p2809
asa(dp2810
g2
S'3470'
p2811
sg4
(lp2812
Vjournals/mss/Maydeu-Olivares02
p2813
asa(dp2814
g2
S'3577'
p2815
sg4
(lp2816
Vbooks/daglib/0026018
p2817
aVjournals/aim/Zhang01
p2818
asa(dp2819
g2
S'3587'
p2820
sg4
(lp2821
Vreference/ml/X17lw
p2822
aVreference/ml/X10li
p2823
asa(dp2824
g2
S'3478'
p2825
sg4
(lp2826
Vconf/mammo/MacParthalainZ10
p2827
asa(dp2828
g2
S'502'
p2829
sg4
(lp2830
Vjournals/computer/HibbardS89
p2831
asa(dp2832
g2
S'2664'
p2833
sg4
(lp2834
Vreference/ml/Wiegand17
p2835
asa(dp2836
g2
S'2665'
p2837
sg4
(lp2838
Vconf/dasfaa/XieB11
p2839
asa(dp2840
g2
S'368'
p2841
sg4
(lp2842
Vjournals/corr/abs-1106-4872
p2843
asa(dp2844
g2
S'2937'
p2845
sg4
(lp2846
Vconf/evoW/VanneschiFGMAP10
p2847
asa(dp2848
g2
S'365'
p2849
sg4
(lp2850
Vreference/ml/X17cq
p2851
asa(dp2852
g2
S'362'
p2853
sg4
(lp2854
Vreference/ml/Zhang17c
p2855
aVreference/ml/Zhang10c
p2856
asa(dp2857
g2
S'363'
p2858
sg4
(lp2859
Vseries/sci/KubatSD10
p2860
asa(dp2861
g2
S'2668'
p2862
sg4
(lp2863
Vjournals/ijon/MalathiMB10
p2864
asa(dp2865
g2
S'2669'
p2866
sg4
(lp2867
Vseries/sci/SmirnovMNS11
p2868
asa(dp2869
g2
S'2449'
p2870
sg4
(lp2871
Vjournals/jcisd/Jackson93
p2872
asa(dp2873
g2
S'25'
p2874
sg4
(lp2875
Vconf/icmla/Zhang11
p2876
asa(dp2877
g2
S'2485'
p2878
sg4
(lp2879
Vjournals/jcisd/LefkovitzRKH81
p2880
asa(dp2881
g2
S'1368'
p2882
sg4
(lp2883
Vjournals/jcam/LopezMMTV10
p2884
asa(dp2885
g2
S'1304'
p2886
sg4
(lp2887
Vreference/ml/X17py
p2888
aVreference/ml/X10pe
p2889
asa(dp2890
g2
S'2935'
p2891
sg4
(lp2892
Vconf/incos/MenkovskiEL10
p2893
asa(dp2894
g2
S'1777'
p2895
sg4
(lp2896
Vjournals/jcisd/CarabedianD91
p2897
asa(dp2898
g2
S'2931'
p2899
sg4
(lp2900
Vreference/ml/Brown17
p2901
asa(dp2902
g2
S'380'
p2903
sg4
(lp2904
Vreference/ml/Lloyd17
p2905
asa(dp2906
g2
S'383'
p2907
sg4
(lp2908
Vjournals/jcisd/PattersonSW95
p2909
asa(dp2910
g2
S'386'
p2911
sg4
(lp2912
Vreference/ml/X17cf
p2913
aVreference/ml/X17ce
p2914
asa(dp2915
g2
S'3311'
p2916
sg4
(lp2917
Vreference/ml/X17ct
p2918
asa(dp2919
g2
S'3310'
p2920
sg4
(lp2921
Vreference/ml/X17cv
p2922
asa(dp2923
g2
S'3313'
p2924
sg4
(lp2925
Vjournals/sigops/Bodik11
p2926
asa(dp2927
g2
S'3383'
p2928
sg4
(lp2929
Vconf/aaaiss/Amin10
p2930
asa(dp2931
g2
S'2350'
p2932
sg4
(lp2933
Vjournals/jcisd/PittmanSY02
p2934
asa(dp2935
g2
S'3317'
p2936
sg4
(lp2937
Vjournals/jcisd/StanleyM89
p2938
asa(dp2939
g2
S'1647'
p2940
sg4
(lp2941
Vjournals/jcisd/ExnerKV93
p2942
asa(dp2943
g2
S'1640'
p2944
sg4
(lp2945
Vconf/isqed/WuuPM11
p2946
asa(dp2947
g2
S'1643'
p2948
sg4
(lp2949
Vjournals/jcisd/LaidboeurLCB94
p2950
asa(dp2951
g2
S'1729'
p2952
sg4
(lp2953
Vreference/ml/Auer17
p2954
asa(dp2955
g2
S'1723'
p2956
sg4
(lp2957
Vconf/networking/WagnerFSE11
p2958
asa(dp2959
g2
S'1720'
p2960
sg4
(lp2961
Vconf/mm/WangGSMG10
p2962
asa(dp2963
g2
S'1741'
p2964
sg4
(lp2965
Vreference/ml/X17jg
p2966
asa(dp2967
g2
S'2792'
p2968
sg4
(lp2969
Vjournals/jcisd/HagadoneS95
p2970
asa(dp2971
g2
S'3610'
p2972
sg4
(lp2973
Vreference/ml/Sammut17g
p2974
asa(dp2975
g2
S'3611'
p2976
sg4
(lp2977
Vreference/ml/Sammut17f
p2978
asa(dp2979
g2
S'3612'
p2980
sg4
(lp2981
Vreference/ml/Sammut17a
p2982
asa(dp2983
g2
S'578'
p2984
sg4
(lp2985
Vjournals/cga/MacInnesSW10
p2986
asa(dp2987
g2
S'3614'
p2988
sg4
(lp2989
Vjournals/jcisd/VoigtBWN01
p2990
asa(dp2991
g2
S'3615'
p2992
sg4
(lp2993
Vreference/ml/Sammut17b
p2994
asa(dp2995
g2
S'3618'
p2996
sg4
(lp2997
Vreference/ml/X17mg
p2998
asa(dp2999
g2
S'571'
p3000
sg4
(lp3001
Vconf/rules/1997
p3002
asa(dp3003
g2
S'3755'
p3004
sg4
(lp3005
Vconf/ircdl/BasileEF11
p3006
asa(dp3007
g2
S'61'
p3008
sg4
(lp3009
Vreference/ml/X17am
p3010
asa(dp3011
g2
S'62'
p3012
sg4
(lp3013
Vreference/ml/X17al
p3014
asa(dp3015
g2
S'63'
p3016
sg4
(lp3017
Vjournals/jcisd/Rudman77
p3018
asa(dp3019
g2
S'3001'
p3020
sg4
(lp3021
Vconf/edbt/2000
p3022
asa(dp3023
g2
S'3000'
p3024
sg4
(lp3025
Vconf/edbt/2002
p3026
asa(dp3027
g2
S'2793'
p3028
sg4
(lp3029
Vjournals/neuroimage/ChenH10
p3030
asa(dp3031
g2
S'2198'
p3032
sg4
(lp3033
Vjournals/jmlr/ZhangCZJ16
p3034
asa(dp3035
g2
S'1209'
p3036
sg4
(lp3037
Vjournals/jcisd/SalimHW03
p3038
asa(dp3039
g2
S'3165'
p3040
sg4
(lp3041
Vjournals/ml/BlockeelBRDKY11
p3042
asa(dp3043
g2
S'3160'
p3044
sg4
(lp3045
Vconf/lrec/HuangKC10
p3046
asa(dp3047
g2
S'2805'
p3048
sg4
(lp3049
Vreference/ml/Sander17
p3050
asa(dp3051
g2
S'1421'
p3052
sg4
(lp3053
Vreference/ml/Zeugmann17c
p3054
asa(dp3055
g2
S'2568'
p3056
sg4
(lp3057
Vjournals/mcm/AraujoRGT11
p3058
asa(dp3059
g2
S'3368'
p3060
sg4
(lp3061
Vconf/icdm2/2004
p3062
asa(dp3063
g2
S'3369'
p3064
sg4
(lp3065
Vconf/icst/SilvaJA10
p3066
asa(dp3067
g2
S'1426'
p3068
sg4
(lp3069
Vjournals/ploscb/ReynesHCLLMDFVS10
p3070
asa(dp3071
g2
S'1429'
p3072
sg4
(lp3073
Vconf/sebd/TradigoVP11
p3074
asa(dp3075
g2
S'2563'
p3076
sg4
(lp3077
Vjournals/jmlr/RasmussenN10
p3078
asa(dp3079
g2
S'939'
p3080
sg4
(lp3081
Vreference/ml/X17jn
p3082
asa(dp3083
g2
S'2567'
p3084
sg4
(lp3085
Vconf/fgr/QMV11
p3086
asa(dp3087
g2
S'3463'
p3088
sg4
(lp3089
Vjournals/cma/LiLD10
p3090
asa(dp3091
g2
S'2368'
p3092
sg4
(lp3093
Vconf/lrec/QuaresmaG10
p3094
asa(dp3095
g2
S'507'
p3096
sg4
(lp3097
Vreference/ml/Engel17
p3098
asa(dp3099
g2
S'1030'
p3100
sg4
(lp3101
Vconf/ifip12/KoutinaK11
p3102
asa(dp3103
g2
S'1031'
p3104
sg4
(lp3105
Vjournals/jcisd/RobertsMJCB00
p3106
asa(dp3107
g2
S'2363'
p3108
sg4
(lp3109
Vreference/ml/Perlich17
p3110
aVreference/ml/Perlich10
p3111
asa(dp3112
g2
S'2362'
p3113
sg4
(lp3114
Vreference/ml/Bosch17
p3115
asa(dp3116
g2
S'1034'
p3117
sg4
(lp3118
Vjournals/jcisd/MezeyZWWIDG96
p3119
asa(dp3120
g2
S'2360'
p3121
sg4
(lp3122
Vreference/ml/Todorovski17a
p3123
asa(dp3124
g2
S'2586'
p3125
sg4
(lp3126
Vconf/lrec/RentoumiPKVK10
p3127
asa(dp3128
g2
S'2585'
p3129
sg4
(lp3130
Vreference/ml/X17ij
p3131
asa(dp3132
g2
S'2430'
p3133
sg4
(lp3134
Vjournals/ml/ReadPHF11
p3135
asa(dp3136
g2
S'2582'
p3137
sg4
(lp3138
Vreference/ml/X17cn
p3139
asa(dp3140
g2
S'1214'
p3141
sg4
(lp3142
Vjournals/jcisd/Murdock80
p3143
asa(dp3144
g2
S'2580'
p3145
sg4
(lp3146
Vjournals/jcisd/ArtymiukBGPPRTWW92
p3147
asa(dp3148
g2
S'465'
p3149
sg4
(lp3150
Vjournals/eaai/SureshSS10
p3151
asa(dp3152
g2
S'1201'
p3153
sg4
(lp3154
Vconf/sbm/HeroldS11
p3155
asa(dp3156
g2
S'1218'
p3157
sg4
(lp3158
Vconf/cscw/ChinL04
p3159
asa(dp3160
g2
S'2423'
p3161
sg4
(lp3162
Vreference/ml/Poupart17a
p3163
asa(dp3164
g2
S'2424'
p3165
sg4
(lp3166
Vconf/cisis/BibaXEF11
p3167
asa(dp3168
g2
S'460'
p3169
sg4
(lp3170
Vjournals/ml/AminiG10
p3171
asa(dp3172
g2
S'1355'
p3173
sg4
(lp3174
Vjournals/db/KendallK82
p3175
asa(dp3176
g2
S'1169'
p3177
sg4
(lp3178
Vreference/ml/X17fm
p3179
asa(dp3180
g2
S'1860'
p3181
sg4
(lp3182
Vreference/ml/Utgoff17
p3183
asa(dp3184
g2
S'1863'
p3185
sg4
(lp3186
Vconf/icmlc/LeeHYC10
p3187
asa(dp3188
g2
S'38'
p3189
sg4
(lp3190
Vreference/ml/X17az
p3191
asa(dp3192
g2
S'168'
p3193
sg4
(lp3194
Vjournals/entcs/Sampaio07
p3195
aVjournals/jaise/AugustoAMP17
p3196
aVjournals/jaise/AugustoMPA17
p3197
aVjournals/jaise/GomezPAA17
p3198
aVjournals/jaise/GomezPAA17a
p3199
aVjournals/jaise/PratiMAA17
p3200
asa(dp3201
g2
S'3211'
p3202
sg4
(lp3203
Vjournals/ml/KalyanakrishnanS11
p3204
asa(dp3205
g2
S'3727'
p3206
sg4
(lp3207
Vconf/eScience/Matsuda05
p3208
asa(dp3209
g2
S'3721'
p3210
sg4
(lp3211
Vjournals/ijcv/EfrosT16
p3212
asa(dp3213
g2
S'907'
p3214
sg4
(lp3215
Vseries/sci/KwasnickaP10
p3216
asa(dp3217
g2
S'964'
p3218
sg4
(lp3219
Vjournals/jcisd/BeckHCC98
p3220
asa(dp3221
g2
S'965'
p3222
sg4
(lp3223
Vjournals/datascience/SuhRLR02
p3224
asa(dp3225
g2
S'966'
p3226
sg4
(lp3227
Vreference/ml/X17dh
p3228
asa(dp3229
g2
S'967'
p3230
sg4
(lp3231
Vjournals/pami/RostenPD10
p3232
asa(dp3233
g2
S'960'
p3234
sg4
(lp3235
Vreference/ml/X17df
p3236
asa(dp3237
g2
S'2898'
p3238
sg4
(lp3239
Vjournals/jcisd/HendricksonM90
p3240
asa(dp3241
g2
S'3683'
p3242
sg4
(lp3243
Vjournals/soco/ConilioneW11
p3244
asa(dp3245
g2
S'2595'
p3246
sg4
(lp3247
Vreference/ml/X17ik
p3248
asa(dp3249
g2
S'3680'
p3250
sg4
(lp3251
Vjournals/jcisd/BrackenW77
p3252
asa(dp3253
g2
S'2890'
p3254
sg4
(lp3255
Vreference/ml/Sipper17
p3256
asa(dp3257
g2
S'2431'
p3258
sg4
(lp3259
Vjournals/jodl/PouchardWB05
p3260
asa(dp3261
g2
S'1106'
p3262
sg4
(lp3263
Vreference/ml/Uther17
p3264
asa(dp3265
g2
S'1105'
p3266
sg4
(lp3267
Vreference/ml/RaedtK17
p3268
asa(dp3269
g2
S'2518'
p3270
sg4
(lp3271
Vreference/ml/X17da
p3272
asa(dp3273
g2
S'2519'
p3274
sg4
(lp3275
Vreference/ml/X17ls
p3276
asa(dp3277
g2
S'1453'
p3278
sg4
(lp3279
Vconf/ssdbm/TangYYK03
p3280
asa(dp3281
g2
S'1515'
p3282
sg4
(lp3283
Vreference/ml/X17hz
p3284
asa(dp3285
g2
S'2515'
p3286
sg4
(lp3287
Vjournals/jmlr/ForeroCG10
p3288
asa(dp3289
g2
S'934'
p3290
sg4
(lp3291
Vreference/ml/X17ki
p3292
asa(dp3293
g2
S'2510'
p3294
sg4
(lp3295
Vjournals/datascience/MitnitskiMMR03
p3296
asa(dp3297
g2
S'1459'
p3298
sg4
(lp3299
Vreference/ml/TingMVS17
p3300
asa(dp3301
g2
S'2513'
p3302
sg4
(lp3303
Vjournals/jcisd/HendricksonZ00
p3304
asa(dp3305
g2
S'2735'
p3306
sg4
(lp3307
Vreference/ml/X17no
p3308
asa(dp3309
g2
S'2736'
p3310
sg4
(lp3311
Vjournals/jcisd/DonovanW77
p3312
asa(dp3313
g2
S'30'
p3314
sg4
(lp3315
Vconf/iri/TiwariZS10
p3316
asa(dp3317
g2
S'2639'
p3318
sg4
(lp3319
Vreference/ml/X17ch
p3320
asa(dp3321
g2
S'2731'
p3322
sg4
(lp3323
Vreference/ml/X17nl
p3324
asa(dp3325
g2
S'2733'
p3326
sg4
(lp3327
Vreference/ml/X17nq
p3328
asa(dp3329
g2
S'2635'
p3330
sg4
(lp3331
Vjournals/bmcbi/DalePK10
p3332
asa(dp3333
g2
S'2738'
p3334
sg4
(lp3335
Vreference/ml/X17lh
p3336
asa(dp3337
g2
S'2739'
p3338
sg4
(lp3339
Vreference/ml/Pfahringer17
p3340
asa(dp3341
g2
S'3865'
p3342
sg4
(lp3343
Vjournals/jcisd/MattioniKJCDP03
p3344
asa(dp3345
g2
S'3864'
p3346
sg4
(lp3347
Vconf/wetice/MalliosPS11
p3348
asa(dp3349
g2
S'1357'
p3350
sg4
(lp3351
Vconf/ismb/SpringerP93
p3352
asa(dp3353
g2
S'3213'
p3354
sg4
(lp3355
Vjournals/jcisd/DbskaGC00
p3356
asa(dp3357
g2
S'3539'
p3358
sg4
(lp3359
Vreference/ml/X17hb
p3360
asa(dp3361
g2
S'1159'
p3362
sg4
(lp3363
Vreference/ml/X17kl
p3364
asa(dp3365
g2
S'3148'
p3366
sg4
(lp3367
g1961
ag1962
asa(dp3368
g2
S'34'
p3369
sg4
(lp3370
Vconf/icmla/PalaniappanM11
p3371
asa(dp3372
g2
S'1091'
p3373
sg4
(lp3374
Vjournals/jcisd/HellerMF76
p3375
asa(dp3376
g2
S'1814'
p3377
sg4
(lp3378
Vreference/ml/X17ay
p3379
asa(dp3380
g2
S'3037'
p3381
sg4
(lp3382
Vconf/cidu/GhanouiLDPSB11
p3383
asa(dp3384
g2
S'3585'
p3385
sg4
(lp3386
Vreference/ml/X10lh
p3387
asa(dp3388
g2
S'1817'
p3389
sg4
(lp3390
Vconf/psd/2004
p3391
asa(dp3392
g2
S'1811'
p3393
sg4
(lp3394
Vconf/ifip/Harper68
p3395
asa(dp3396
g2
S'878'
p3397
sg4
(lp3398
Vbooks/daglib/p/GrobelnikMLS11
p3399
asa(dp3400
g2
S'1536'
p3401
sg4
(lp3402
Vjournals/jcisd/IhlenfeldtVBON02
p3403
asa(dp3404
g2
S'3431'
p3405
sg4
(lp3406
Vconf/icmla/EllenP11
p3407
asa(dp3408
g2
S'873'
p3409
sg4
(lp3410
Vreference/ml/Wagstaff17
p3411
asa(dp3412
g2
S'870'
p3413
sg4
(lp3414
Vconf/ranlp/DinuINS11
p3415
asa(dp3416
g2
S'3437'
p3417
sg4
(lp3418
Vjournals/jcisd/EhrhardtR86
p3419
asa(dp3420
g2
S'3185'
p3421
sg4
(lp3422
Vjournals/jcisd/SebastianBH95
p3423
asa(dp3424
g2
S'2743'
p3425
sg4
(lp3426
Vreference/ml/X17lg
p3427
asa(dp3428
g2
S'2742'
p3429
sg4
(lp3430
Vreference/ml/Heskes17
p3431
asa(dp3432
g2
S'3182'
p3433
sg4
(lp3434
Vconf/icai/OstrowskiS10
p3435
asa(dp3436
g2
S'3480'
p3437
sg4
(lp3438
Vjournals/jmlr/YuFMXHCDSW10
p3439
asa(dp3440
g2
S'1245'
p3441
sg4
(lp3442
Vjournals/jcisd/CurnuttC91
p3443
asa(dp3444
g2
S'3188'
p3445
sg4
(lp3446
Vconf/iccd/ZhangRDMJ11
p3447
asa(dp3448
g2
S'3189'
p3449
sg4
(lp3450
Vreference/ml/X17k
p3451
asa(dp3452
g2
S'2469'
p3453
sg4
(lp3454
Vjournals/corr/abs-1110-5688
p3455
asa(dp3456
g2
S'892'
p3457
sg4
(lp3458
Vreference/ml/X17pj
p3459
asa(dp3460
g2
S'3482'
p3461
sg4
(lp3462
Vjournals/sigmod/Huyn01
p3463
asa(dp3464
g2
S'894'
p3465
sg4
(lp3466
Vreference/ml/Drummond17
p3467
asa(dp3468
g2
S'895'
p3469
sg4
(lp3470
Vconf/mdm/2001
p3471
asa(dp3472
g2
S'896'
p3473
sg4
(lp3474
Vreference/ml/X17ec
p3475
asa(dp3476
g2
S'897'
p3477
sg4
(lp3478
Vjournals/ml/MargineantuWD10
p3479
asa(dp3480
g2
S'3147'
p3481
sg4
(lp3482
Vjournals/jcisd/MorrisonLTHB84
p3483
asa(dp3484
g2
S'1099'
p3485
sg4
(lp3486
Vjournals/mlc/MahapatraMS11
p3487
asa(dp3488
g2
S'1153'
p3489
sg4
(lp3490
Vreference/ml/X17kn
p3491
asa(dp3492
g2
S'2401'
p3493
sg4
(lp3494
Vjournals/jcc/YangLCX10
p3495
asa(dp3496
g2
S'1152'
p3497
sg4
(lp3498
Vreference/ml/X17ko
p3499
asa(dp3500
g2
S'1609'
p3501
sg4
(lp3502
Vreference/ml/X17gd
p3503
asa(dp3504
g2
S'2546'
p3505
sg4
(lp3506
Vjournals/cn/MeyerSIM95
p3507
asa(dp3508
g2
S'1338'
p3509
sg4
(lp3510
Vjournals/datascience/GutmannSDB04
p3511
asa(dp3512
g2
S'3547'
p3513
sg4
(lp3514
Vconf/bibm/ChenCWN10
p3515
asa(dp3516
g2
S'3543'
p3517
sg4
(lp3518
Vjournals/jcisd/RoschkowskiS80
p3519
asa(dp3520
g2
S'1601'
p3521
sg4
(lp3522
Vreference/ml/Ting17c
p3523
asa(dp3524
g2
S'1600'
p3525
sg4
(lp3526
Vreference/ml/Ting17b
p3527
asa(dp3528
g2
S'1602'
p3529
sg4
(lp3530
Vreference/ml/Ting17d
p3531
asa(dp3532
g2
S'1605'
p3533
sg4
(lp3534
Vreference/ml/X17gc
p3535
asa(dp3536
g2
S'3549'
p3537
sg4
(lp3538
Vreference/ml/X17sd
p3539
asa(dp3540
g2
S'1971'
p3541
sg4
(lp3542
Vreference/ml/BrankMG17
p3543
asa(dp3544
g2
S'1970'
p3545
sg4
(lp3546
Vjournals/jcisd/Pogliani02
p3547
asa(dp3548
g2
S'46'
p3549
sg4
(lp3550
Vreference/ml/X17bc
p3551
asa(dp3552
g2
S'355'
p3553
sg4
(lp3554
Vreference/ml/X17od
p3555
aVreference/ml/X10nm
p3556
aVreference/ml/X17oc
p3557
asa(dp3558
g2
S'808'
p3559
sg4
(lp3560
Vreference/ml/X17dw
p3561
asa(dp3562
g2
S'353'
p3563
sg4
(lp3564
Vreference/ml/X17cp
p3565
asa(dp3566
g2
S'47'
p3567
sg4
(lp3568
Vreference/ml/X17ak
p3569
asa(dp3570
g2
S'803'
p3571
sg4
(lp3572
Vreference/ml/X17ea
p3573
aVreference/ml/X10dx
p3574
asa(dp3575
g2
S'807'
p3576
sg4
(lp3577
Vreference/ml/X17dv
p3578
asa(dp3579
g2
S'1614'
p3580
sg4
(lp3581
Vreference/ml/X17fz
p3582
asa(dp3583
g2
S'804'
p3584
sg4
(lp3585
Vconf/dbsec/Wang10
p3586
asa(dp3587
g2
S'1788'
p3588
sg4
(lp3589
Vconf/adbis/2000
p3590
asa(dp3591
g2
S'2964'
p3592
sg4
(lp3593
Vreference/ml/Jain017c
p3594
aVreference/ml/JainS10c
p3595
asa(dp3596
g2
S'2961'
p3597
sg4
(lp3598
Vconf/IEEEpact/WangO10
p3599
asa(dp3600
g2
S'2960'
p3601
sg4
(lp3602
Vconf/aaaiss/SleemanF10
p3603
asa(dp3604
g2
S'3758'
p3605
sg4
(lp3606
Vjournals/jcisd/LeeIM92a
p3607
asa(dp3608
g2
S'955'
p3609
sg4
(lp3610
Vreference/ml/X17dl
p3611
asa(dp3612
g2
S'2845'
p3613
sg4
(lp3614
Vjournals/jcisd/Uchida79
p3615
asa(dp3616
g2
S'1784'
p3617
sg4
(lp3618
Vconf/paclic/KolyaEB10
p3619
asa(dp3620
g2
S'2968'
p3621
sg4
(lp3622
Vconf/icac/EastepWA11
p3623
asa(dp3624
g2
S'2840'
p3625
sg4
(lp3626
Vjournals/jcisd/BensonW79
p3627
asa(dp3628
g2
S'3049'
p3629
sg4
(lp3630
Vbooks/idea/encyclopedia2005/WaluyoST05
p3631
asa(dp3632
g2
S'3048'
p3633
sg4
(lp3634
Vjournals/nca/NanniLB10
p3635
asa(dp3636
g2
S'3322'
p3637
sg4
(lp3638
Vjournals/jcisd/Green91
p3639
asa(dp3640
g2
S'2614'
p3641
sg4
(lp3642
Vjournals/jcisd/Swift97
p3643
asa(dp3644
g2
S'3326'
p3645
sg4
(lp3646
Vreference/ml/X17nk
p3647
asa(dp3648
g2
S'3327'
p3649
sg4
(lp3650
Vjournals/mlc/Castillo11
p3651
asa(dp3652
g2
S'2419'
p3653
sg4
(lp3654
Vjournals/jmlr/TheodorouBS10
p3655
asa(dp3656
g2
S'3042'
p3657
sg4
(lp3658
Vjournals/tkde/FrunzaIT11
p3659
asa(dp3660
g2
S'2544'
p3661
sg4
(lp3662
Vreference/ml/X17mo
p3663
aVreference/ml/X10lz
p3664
asa(dp3665
g2
S'3047'
p3666
sg4
(lp3667
Vjournals/datascience/HuangHSW04
p3668
asa(dp3669
g2
S'992'
p3670
sg4
(lp3671
Vconf/lcn/ZanderA11
p3672
asa(dp3673
g2
S'1772'
p3674
sg4
(lp3675
Vjournals/jcisd/CarabedianD98
p3676
asa(dp3677
g2
S'1959'
p3678
sg4
(lp3679
Vreference/ml/X17or
p3680
asa(dp3681
g2
S'1074'
p3682
sg4
(lp3683
Vreference/ml/Miikkulainen17d
p3684
asa(dp3685
g2
S'3743'
p3686
sg4
(lp3687
Vjournals/jcisd/TancrediASV76
p3688
asa(dp3689
g2
S'1298'
p3690
sg4
(lp3691
Vjournals/jcisd/BachaGHTN02
p3692
asa(dp3693
g2
S'1679'
p3694
sg4
(lp3695
Vreference/ml/Miikkulainen17
p3696
asa(dp3697
g2
S'334'
p3698
sg4
(lp3699
Vreference/ml/Hinton17
p3700
asa(dp3701
g2
S'1674'
p3702
sg4
(lp3703
Vjournals/jcisd/MazzatortaBNG02
p3704
asa(dp3705
g2
S'1675'
p3706
sg4
(lp3707
Vconf/jurix/GrabmairAHS11
p3708
asa(dp3709
g2
S'1677'
p3710
sg4
(lp3711
Vjournals/isci/Niskanen01a
p3712
asa(dp3713
g2
S'1672'
p3714
sg4
(lp3715
Vreference/ml/X17pd
p3716
asa(dp3717
g2
S'1673'
p3718
sg4
(lp3719
Vreference/ml/RaySB17a
p3720
asa(dp3721
g2
S'2499'
p3722
sg4
(lp3723
Vjournals/jcisd/Whitbeck92
p3724
asa(dp3725
g2
S'1090'
p3726
sg4
(lp3727
Vreference/ml/ZhengW17a
p3728
asa(dp3729
g2
S'1158'
p3730
sg4
(lp3731
Vreference/ml/X17km
p3732
asa(dp3733
g2
S'1092'
p3734
sg4
(lp3735
Vjournals/mlc/SmallR10
p3736
asa(dp3737
g2
S'2999'
p3738
sg4
(lp3739
Vreference/ml/X17bu
p3740
asa(dp3741
g2
S'1154'
p3742
sg4
(lp3743
Vreference/ml/X17kt
p3744
aVreference/ml/X10kg
p3745
asa(dp3746
g2
S'1156'
p3747
sg4
(lp3748
Vreference/ml/X17kk
p3749
asa(dp3750
g2
S'1151'
p3751
sg4
(lp3752
Vreference/ml/X17lo
p3753
asa(dp3754
g2
S'1150'
p3755
sg4
(lp3756
Vreference/ml/MladenicBG17
p3757
aVreference/ml/MladenicBG10
p3758
asa(dp3759
g2
S'3487'
p3760
sg4
(lp3761
Vconf/cinq/2004hz
p3762
asa(dp3763
g2
S'3486'
p3764
sg4
(lp3765
Vconf/iccS/DerisBRS04
p3766
asa(dp3767
g2
S'3134'
p3768
sg4
(lp3769
Vconf/oodbs/2000
p3770
asa(dp3771
g2
S'3136'
p3772
sg4
(lp3773
Vreference/ml/Miikkulainen17a
p3774
asa(dp3775
g2
S'3131'
p3776
sg4
(lp3777
Vjournals/jmlr/TeoVSL10
p3778
asa(dp3779
g2
S'3803'
p3780
sg4
(lp3781
Vjournals/jcisd/HendricksonNMZ93
p3782
asa(dp3783
g2
S'3132'
p3784
sg4
(lp3785
Vjournals/jcisd/HushonPT83
p3786
asa(dp3787
g2
S'3647'
p3788
sg4
(lp3789
Vjournals/jcisd/Citroen96
p3790
asa(dp3791
g2
S'1555'
p3792
sg4
(lp3793
Vreference/ml/X17gm
p3794
asa(dp3795
g2
S'3645'
p3796
sg4
(lp3797
Vreference/ml/X17j
p3798
asa(dp3799
g2
S'2618'
p3800
sg4
(lp3801
Vreference/ml/X17in
p3802
asa(dp3803
g2
S'3139'
p3804
sg4
(lp3805
Vreference/ml/Miikkulainen17b
p3806
asa(dp3807
g2
S'3642'
p3808
sg4
(lp3809
Vjournals/jcisd/MasonORBIPAP91
p3810
asa(dp3811
g2
S'3641'
p3812
sg4
(lp3813
Vjournals/jcisd/PicchiottinoGSPD84
p3814
asa(dp3815
g2
S'3640'
p3816
sg4
(lp3817
Vreference/ml/X17l
p3818
asa(dp3819
g2
S'2998'
p3820
sg4
(lp3821
Vreference/ml/X17fn
p3822
asa(dp3823
g2
S'1550'
p3824
sg4
(lp3825
Vconf/kdid/2004
p3826
asa(dp3827
g2
S'2504'
p3828
sg4
(lp3829
Vconf/miccai/XuS11
p3830
asa(dp3831
g2
S'59'
p3832
sg4
(lp3833
Vreference/ml/X17ao
p3834
asa(dp3835
g2
S'2555'
p3836
sg4
(lp3837
Vreference/ml/X17il
p3838
asa(dp3839
g2
S'2556'
p3840
sg4
(lp3841
Vjournals/jcisd/Barrett93
p3842
asa(dp3843
g2
S'2557'
p3844
sg4
(lp3845
Vjournals/jcisd/KuhnDF94
p3846
asa(dp3847
g2
S'3034'
p3848
sg4
(lp3849
Vbooks/daglib/0067666
p3850
asa(dp3851
g2
S'1296'
p3852
sg4
(lp3853
Vreference/ml/X17pt
p3854
asa(dp3855
g2
S'3036'
p3856
sg4
(lp3857
Vjournals/mss/Batell82
p3858
asa(dp3859
g2
S'56'
p3860
sg4
(lp3861
Vreference/ml/X17ar
p3862
asa(dp3863
g2
S'51'
p3864
sg4
(lp3865
Vjournals/ibmsj/HaasSKKRS01
p3866
asa(dp3867
g2
S'2995'
p3868
sg4
(lp3869
Vconf/ijcai/DornBL11
p3870
asa(dp3871
g2
S'3033'
p3872
sg4
(lp3873
Vjournals/jmlr/RavikumarAW10
p3874
asa(dp3875
g2
S'2396'
p3876
sg4
(lp3877
Vjournals/jcisd/AttwoodABBBBCDGFKLMPPSSW97
p3878
asa(dp3879
g2
S'2558'
p3880
sg4
(lp3881
Vjournals/tnn/NguyenMTH10
p3882
asa(dp3883
g2
S'2394'
p3884
sg4
(lp3885
Vreference/ml/SaittaS17
p3886
asa(dp3887
g2
S'533'
p3888
sg4
(lp3889
Vreference/ml/X17ra
p3890
asa(dp3891
g2
S'2393'
p3892
sg4
(lp3893
Vjournals/jcisd/HerzKSW85
p3894
asa(dp3895
g2
S'530'
p3896
sg4
(lp3897
Vreference/ml/X17re
p3898
asa(dp3899
g2
S'1414'
p3900
sg4
(lp3901
Vseries/sci/MaszczykGD10
p3902
asa(dp3903
g2
S'1415'
p3904
sg4
(lp3905
Vreference/ml/RaySB17
p3906
asa(dp3907
g2
S'3299'
p3908
sg4
(lp3909
Vjournals/jcisd/StouchJ85a
p3910
asa(dp3911
g2
S'1322'
p3912
sg4
(lp3913
Vreference/ml/X17up
p3914
asa(dp3915
g2
S'1321'
p3916
sg4
(lp3917
Vreference/ml/X17uo
p3918
asa(dp3919
g2
S'2473'
p3920
sg4
(lp3921
Vconf/dbvis/WoynaZSC93
p3922
asa(dp3923
g2
S'1558'
p3924
sg4
(lp3925
Vreference/ml/X17kg
p3926
asa(dp3927
g2
S'2770'
p3928
sg4
(lp3929
Vjournals/jcisd/CaffreyMH91
p3930
asa(dp3931
g2
S'2771'
p3932
sg4
(lp3933
Vreference/ml/Kaski17
p3934
asa(dp3935
g2
S'3002'
p3936
sg4
(lp3937
Vconf/iccvg/MichalakS10
p3938
asa(dp3939
g2
S'1621'
p3940
sg4
(lp3941
Vjournals/jcisd/Pollick83
p3942
asa(dp3943
g2
S'984'
p3944
sg4
(lp3945
Vjournals/jcisd/OzawaYF97
p3946
asa(dp3947
g2
S'2777'
p3948
sg4
(lp3949
Vreference/ml/X17lm
p3950
asa(dp3951
g2
S'2724'
p3952
sg4
(lp3953
Vjournals/jcisd/TurnerTW97
p3954
asa(dp3955
g2
S'1904'
p3956
sg4
(lp3957
Vjournals/jcisd/Barnard90
p3958
asa(dp3959
g2
S'1233'
p3960
sg4
(lp3961
Vjournals/jcisd/SebastianBH94
p3962
asa(dp3963
g2
S'1418'
p3964
sg4
(lp3965
Vjournals/jcisd/Allen80
p3966
asa(dp3967
g2
S'2801'
p3968
sg4
(lp3969
Vjournals/jcisd/Summit75
p3970
asa(dp3971
g2
S'2781'
p3972
sg4
(lp3973
Vjournals/jmlr/Xiao10
p3974
asa(dp3975
g2
S'2780'
p3976
sg4
(lp3977
Vconf/iberamia/ArregiCIGSZ10
p3978
asa(dp3979
g2
S'2783'
p3980
sg4
(lp3981
Vjournals/lre/LavergneUY11
p3982
asa(dp3983
g2
S'378'
p3984
sg4
(lp3985
Vreference/ml/QuadriantoB17
p3986
asa(dp3987
g2
S'1852'
p3988
sg4
(lp3989
Vbooks/idea/encyclopedia2005/RiedewaldAA05
p3990
asa(dp3991
g2
S'1853'
p3992
sg4
(lp3993
Vjournals/jcisd/LowryHA85
p3994
asa(dp3995
g2
S'1854'
p3996
sg4
(lp3997
Vreference/ml/X17dj
p3998
asa(dp3999
g2
S'953'
p4000
sg4
(lp4001
Vconf/evoW/SilvaAL11
p4002
asa(dp4003
g2
S'1524'
p4004
sg4
(lp4005
Vreference/ml/X17gh
p4006
asa(dp4007
g2
S'1525'
p4008
sg4
(lp4009
Vjournals/tdp/Gkoulalas-DivanisSV11
p4010
asa(dp4011
g2
S'1526'
p4012
sg4
(lp4013
Vjournals/fss/LuengoH10
p4014
asa(dp4015
g2
S'1527'
p4016
sg4
(lp4017
Vjournals/jcisd/LoubFSQ85
p4018
asa(dp4019
g2
S'1520'
p4020
sg4
(lp4021
Vconf/asian/2005
p4022
asa(dp4023
g2
S'1900'
p4024
sg4
(lp4025
Vjournals/ecoi/KampichlerWCWA10
p4026
asa(dp4027
g2
S'1250'
p4028
sg4
(lp4029
Vconf/bibm/ZhangEZ10
p4030
asa(dp4031
g2
S'2641'
p4032
sg4
(lp4033
Vjournals/jcisd/SchweitzerM00
p4034
asa(dp4035
g2
S'915'
p4036
sg4
(lp4037
Vjournals/bmcbi/XuHMB10
p4038
asa(dp4039
g2
S'420'
p4040
sg4
(lp4041
Vjournals/corr/BorgstromGGMG13
p4042
asa(dp4043
g2
S'1395'
p4044
sg4
(lp4045
Vjournals/cn/GrossmanGHHK04
p4046
asa(dp4047
g2
S'3161'
p4048
sg4
(lp4049
Vjournals/jmlr/ShiraziSS10
p4050
asa(dp4051
g2
S'1528'
p4052
sg4
(lp4053
Vconf/xsym/2003
p4054
asa(dp4055
g2
S'910'
p4056
sg4
(lp4057
Vreference/ml/X17dy
p4058
asa(dp4059
g2
S'1391'
p4060
sg4
(lp4061
Vreference/ml/Keogh17a
p4062
asa(dp4063
g2
S'3226'
p4064
sg4
(lp4065
Vjournals/jcisd/HefferlinDI03
p4066
asa(dp4067
g2
S'3812'
p4068
sg4
(lp4069
Vjournals/jcisd/FunatsuNS94
p4070
asa(dp4071
g2
S'309'
p4072
sg4
(lp4073
Vconf/dagstuhl/1998change
p4074
asa(dp4075
g2
S'3810'
p4076
sg4
(lp4077
Vreference/ml/Muslea17
p4078
asa(dp4079
g2
S'3811'
p4080
sg4
(lp4081
Vreference/ml/BhattacharyaG17
p4082
asa(dp4083
g2
S'2600'
p4084
sg4
(lp4085
Vreference/ml/Buntine17
p4086
aVreference/ml/Buntine10
p4087
asa(dp4088
g2
S'3814'
p4089
sg4
(lp4090
Vconf/jit/2002
p4091
asa(dp4092
g2
S'1420'
p4093
sg4
(lp4094
Vjournals/asc/TsaiC10
p4095
asa(dp4096
g2
S'303'
p4097
sg4
(lp4098
Vconf/cdb/2004
p4099
asa(dp4100
g2
S'305'
p4101
sg4
(lp4102
Vreference/ml/CoatesAN17
p4103
asa(dp4104
g2
S'2603'
p4105
sg4
(lp4106
Vconf/semcco/EkbalMHS11
p4107
asa(dp4108
g2
S'3261'
p4109
sg4
(lp4110
Vjournals/jcisd/Edwards02
p4111
asa(dp4112
g2
S'1932'
p4113
sg4
(lp4114
Vjournals/datascience/BordoloiKS04
p4115
asa(dp4116
g2
S'3451'
p4117
sg4
(lp4118
Vjournals/jcisd/RoyceFRMB84
p4119
asa(dp4120
g2
S'1937'
p4121
sg4
(lp4122
Vconf/birthday/2005wedekind
p4123
asa(dp4124
g2
S'3264'
p4125
sg4
(lp4126
Vconf/birthday/ChenM92
p4127
asa(dp4128
g2
S'3266'
p4129
sg4
(lp4130
Vconf/iassist/Dekker05
p4131
asa(dp4132
g2
S'3269'
p4133
sg4
(lp4134
Vconf/icccn/NunesVBLO11
p4135
asa(dp4136
g2
S'3268'
p4137
sg4
(lp4138
Vconf/rsctc/Nguyen10
p4139
asa(dp4140
g2
S'1939'
p4141
sg4
(lp4142
Vjournals/jcisd/MillsMSSSHSBB88
p4143
asa(dp4144
g2
S'3626'
p4145
sg4
(lp4146
Vjournals/sigmod/JagadishO04
p4147
asa(dp4148
g2
S'3508'
p4149
sg4
(lp4150
Vreference/ml/X17gp
p4151
asa(dp4152
g2
S'3466'
p4153
sg4
(lp4154
Vreference/ml/ShultzF17
p4155
asa(dp4156
g2
S'3464'
p4157
sg4
(lp4158
Vreference/ml/X17dz
p4159
asa(dp4160
g2
S'843'
p4161
sg4
(lp4162
Vconf/ibm/1990
p4163
asa(dp4164
g2
S'3462'
p4165
sg4
(lp4166
Vjournals/jcisd/ChristieLN93
p4167
asa(dp4168
g2
S'3461'
p4169
sg4
(lp4170
Vjournals/neuroimage/AndersonLVMC11
p4171
asa(dp4172
g2
S'3460'
p4173
sg4
(lp4174
Vconf/mldm/2011p
p4175
asa(dp4176
g2
S'3501'
p4177
sg4
(lp4178
Vjournals/jcisd/AllenDGJKMMMSW91
p4179
asa(dp4180
g2
S'3505'
p4181
sg4
(lp4182
Vjournals/jcisd/SchweitzerS97
p4183
asa(dp4184
g2
S'849'
p4185
sg4
(lp4186
Vreference/ml/DorigoB17
p4187
asa(dp4188
g2
S'2671'
p4189
sg4
(lp4190
Vseries/sci/CiosK10
p4191
asa(dp4192
g2
S'2670'
p4193
sg4
(lp4194
Vjournals/jcisd/Nardone79
p4195
asa(dp4196
g2
S'2979'
p4197
sg4
(lp4198
Vconf/hipc/CastroGRCCM11
p4199
asa(dp4200
g2
S'2677'
p4201
sg4
(lp4202
Vconf/icmla/Malik10
p4203
asa(dp4204
g2
S'2676'
p4205
sg4
(lp4206
Vreference/ml/X17vq
p4207
asa(dp4208
g2
S'1841'
p4209
sg4
(lp4210
Vreference/ml/2010
p4211
asa(dp4212
g2
S'1972'
p4213
sg4
(lp4214
Vjournals/bmcbi/SturmHLF10
p4215
asa(dp4216
g2
S'1655'
p4217
sg4
(lp4218
Vjournals/jcisd/DentonJHM77
p4219
asa(dp4220
g2
S'2778'
p4221
sg4
(lp4222
Vjournals/jcisd/LuiAT00
p4223
asa(dp4224
g2
S'3058'
p4225
sg4
(lp4226
Vjournals/jcisd/StuperJ76
p4227
asa(dp4228
g2
S'2921'
p4229
sg4
(lp4230
Vconf/igarss/Hunt04
p4231
asa(dp4232
g2
S'2923'
p4233
sg4
(lp4234
Vconf/sigdial/JanarthanamHLL11
p4235
asa(dp4236
g2
S'3059'
p4237
sg4
(lp4238
Vreference/ml/X17bi
p4239
asa(dp4240
g2
S'2925'
p4241
sg4
(lp4242
Vjournals/ml/LongS10
p4243
asa(dp4244
g2
S'1587'
p4245
sg4
(lp4246
Vreference/ml/X17kj
p4247
asa(dp4248
g2
S'989'
p4249
sg4
(lp4250
Vjournals/ml/YangCZGJ11
p4251
asa(dp4252
g2
S'1986'
p4253
sg4
(lp4254
Vreference/ml/Blockeel17b
p4255
asa(dp4256
g2
S'1987'
p4257
sg4
(lp4258
Vreference/ml/Kramer17
p4259
aVreference/ml/Kramer10
p4260
asa(dp4261
g2
S'1984'
p4262
sg4
(lp4263
Vreference/ml/Stone17
p4264
asa(dp4265
g2
S'1985'
p4266
sg4
(lp4267
Vreference/ml/Blockeel17c
p4268
asa(dp4269
g2
S'1982'
p4270
sg4
(lp4271
Vjournals/ml/McGovernW11
p4272
asa(dp4273
g2
S'1983'
p4274
sg4
(lp4275
Vreference/ml/Blockeel17a
p4276
asa(dp4277
g2
S'3212'
p4278
sg4
(lp4279
Vconf/wirn/FiascheCFIM10
p4280
asa(dp4281
g2
S'1637'
p4282
sg4
(lp4283
Vreference/ml/X17jv
p4284
asa(dp4285
g2
S'1638'
p4286
sg4
(lp4287
Vjournals/jcisd/Brown89
p4288
asa(dp4289
g2
S'1730'
p4290
sg4
(lp4291
Vreference/ml/X17mb
p4292
asa(dp4293
g2
S'2470'
p4294
sg4
(lp4295
Vjournals/jcisd/RuizSG94
p4296
asa(dp4297
g2
S'3219'
p4298
sg4
(lp4299
Vjournals/jcisd/DownsWF94
p4300
asa(dp4301
g2
S'1988'
p4302
sg4
(lp4303
Vconf/agile/MartinsAC10
p4304
asa(dp4305
g2
S'1989'
p4306
sg4
(lp4307
Vreference/ml/X17af
p4308
asa(dp4309
g2
S'1781'
p4310
sg4
(lp4311
Vjournals/jcisd/HeYZX01
p4312
asa(dp4313
g2
S'557'
p4314
sg4
(lp4315
Vjournals/jcisd/Butina99
p4316
asa(dp4317
g2
S'2814'
p4318
sg4
(lp4319
Vreference/ml/Barto17
p4320
asa(dp4321
g2
S'3703'
p4322
sg4
(lp4323
Vjournals/jcisd/Hoffmann84
p4324
asa(dp4325
g2
S'2816'
p4326
sg4
(lp4327
Vreference/ml/X17lb
p4328
asa(dp4329
g2
S'2810'
p4330
sg4
(lp4331
Vconf/bibm/ZamaniK11
p4332
asa(dp4333
g2
S'3605'
p4334
sg4
(lp4335
Vreference/ml/Sammut17i
p4336
asa(dp4337
g2
S'2812'
p4338
sg4
(lp4339
Vjournals/jcam/LopezMMTV10a
p4340
asa(dp4341
g2
S'560'
p4342
sg4
(lp4343
Vjournals/jcisd/HowardSLC82
p4344
asa(dp4345
g2
S'3609'
p4346
sg4
(lp4347
Vreference/ml/Sammut17d
p4348
asa(dp4349
g2
S'563'
p4350
sg4
(lp4351
Vreference/ml/JinH17f
p4352
asa(dp4353
g2
S'564'
p4354
sg4
(lp4355
Vreference/ml/Driessens17
p4356
asa(dp4357
g2
S'3070'
p4358
sg4
(lp4359
Vreference/ml/X17bv
p4360
asa(dp4361
g2
S'3072'
p4362
sg4
(lp4363
Vreference/ml/X17bt
p4364
asa(dp4365
g2
S'3781'
p4366
sg4
(lp4367
Vjournals/jcisd/Slutsky98a
p4368
asa(dp4369
g2
S'3074'
p4370
sg4
(lp4371
Vreference/ml/X17br
p4372
aVreference/ml/X10bp
p4373
asa(dp4374
g2
S'3075'
p4375
sg4
(lp4376
Vreference/ml/X17bs
p4377
asa(dp4378
g2
S'1385'
p4379
sg4
(lp4380
Vconf/im/BasharPMSN11
p4381
asa(dp4382
g2
S'3078'
p4383
sg4
(lp4384
Vjournals/jcisd/DavidM00
p4385
asa(dp4386
g2
S'3170'
p4387
sg4
(lp4388
Vreference/ml/Martinez-JaramilloCA17
p4389
asa(dp4390
g2
S'2478'
p4391
sg4
(lp4392
Vjournals/jcisd/HoL93
p4393
asa(dp4394
g2
S'3174'
p4395
sg4
(lp4396
Vreference/ml/X17aa
p4397
asa(dp4398
g2
S'2953'
p4399
sg4
(lp4400
Vreference/ml/Toivonen17
p4401
asa(dp4402
g2
S'1025'
p4403
sg4
(lp4404
Vjournals/jods/2005-4
p4405
asa(dp4406
g2
S'1563'
p4407
sg4
(lp4408
Vjournals/pbml/DuttaKP11
p4409
asa(dp4410
g2
S'1027'
p4411
sg4
(lp4412
Vreference/ml/X17nj
p4413
asa(dp4414
g2
S'1516'
p4415
sg4
(lp4416
Vjournals/jcisd/McGregorP97
p4417
asa(dp4418
g2
S'1021'
p4419
sg4
(lp4420
Vreference/ml/Kennedy17
p4421
asa(dp4422
g2
S'3379'
p4423
sg4
(lp4424
Vreference/ml/Raedt17a
p4425
asa(dp4426
g2
S'1189'
p4427
sg4
(lp4428
Vreference/ml/Furnkranz17b
p4429
asa(dp4430
g2
S'1186'
p4431
sg4
(lp4432
Vreference/ml/Furnkranz17e
p4433
asa(dp4434
g2
S'1187'
p4435
sg4
(lp4436
Vreference/ml/X17ez
p4437
asa(dp4438
g2
S'1184'
p4439
sg4
(lp4440
Vreference/ml/X17er
p4441
asa(dp4442
g2
S'1182'
p4443
sg4
(lp4444
Vreference/ml/X17ev
p4445
asa(dp4446
g2
S'1028'
p4447
sg4
(lp4448
Vjournals/jods/2005-3
p4449
asa(dp4450
g2
S'1180'
p4451
sg4
(lp4452
Vconf/sdmw/2005
p4453
asa(dp4454
g2
S'1181'
p4455
sg4
(lp4456
g502
ag503
asa(dp4457
g2
S'2358'
p4458
sg4
(lp4459
Vconf/nips/KayalaB11
p4460
asa(dp4461
g2
S'1749'
p4462
sg4
(lp4463
Vreference/ml/X17ja
p4464
asa(dp4465
g2
S'2352'
p4466
sg4
(lp4467
Vjournals/jcisd/TuppurainenVLP02
p4468
asa(dp4469
g2
S'1746'
p4470
sg4
(lp4471
Vreference/ml/X17jd
p4472
asa(dp4473
g2
S'1747'
p4474
sg4
(lp4475
Vjournals/jcisd/DikyCWDF03
p4476
asa(dp4477
g2
S'1740'
p4478
sg4
(lp4479
Vjournals/jcisd/KavakE93
p4480
asa(dp4481
g2
S'2357'
p4482
sg4
(lp4483
Vreference/ml/X17fo
p4484
asa(dp4485
g2
S'1742'
p4486
sg4
(lp4487
Vreference/ml/X17jf
p4488
asa(dp4489
g2
S'1743'
p4490
sg4
(lp4491
Vreference/ml/X17je
p4492
asa(dp4493
g2
S'1164'
p4494
sg4
(lp4495
Vreference/ml/X17kw
p4496
asa(dp4497
g2
S'1165'
p4498
sg4
(lp4499
Vreference/ml/X17kv
p4500
asa(dp4501
g2
S'1167'
p4502
sg4
(lp4503
Vreference/ml/X17kx
p4504
asa(dp4505
g2
S'1160'
p4506
sg4
(lp4507
Vreference/ml/X17la
p4508
asa(dp4509
g2
S'603'
p4510
sg4
(lp4511
Vconf/xsym/2006
p4512
asa(dp4513
g2
S'2991'
p4514
sg4
(lp4515
Vjournals/jcisd/OxmanKBEHW76
p4516
asa(dp4517
g2
S'2433'
p4518
sg4
(lp4519
Vconf/fskd/LiY10
p4520
asa(dp4521
g2
S'2432'
p4522
sg4
(lp4523
Vjournals/tcad/LiuZRG11
p4524
asa(dp4525
g2
S'1207'
p4526
sg4
(lp4527
Vjournals/jmlr/SonnenburgRHWBZBBGF10
p4528
asa(dp4529
g2
S'1206'
p4530
sg4
(lp4531
Vreference/ml/Nijssen17
p4532
asa(dp4533
g2
S'2437'
p4534
sg4
(lp4535
Vjournals/expert/StolorzC98
p4536
asa(dp4537
g2
S'2436'
p4538
sg4
(lp4539
Vreference/ml/Stone17a
p4540
asa(dp4541
g2
S'871'
p4542
sg4
(lp4543
Vjournals/jcisd/OsamuraYHHIKMTO81
p4544
asa(dp4545
g2
S'2434'
p4546
sg4
(lp4547
Vjournals/jcisd/Tokuno93
p4548
asa(dp4549
g2
S'3739'
p4550
sg4
(lp4551
Vreference/ml/NamataSBG17
p4552
aVreference/ml/SenNBG10
p4553
asa(dp4554
g2
S'1895'
p4555
sg4
(lp4556
Vjournals/jcisd/KitchenK82
p4557
asa(dp4558
g2
S'3734'
p4559
sg4
(lp4560
Vconf/soco/DanylenkoKL11
p4561
asa(dp4562
g2
S'80'
p4563
sg4
(lp4564
Vconf/icarcv/VaniSS10
p4565
asa(dp4566
g2
S'1217'
p4567
sg4
(lp4568
Vreference/ml/X17kd
p4569
asa(dp4570
g2
S'472'
p4571
sg4
(lp4572
Vjournals/jcisd/Novak00
p4573
asa(dp4574
g2
S'3305'
p4575
sg4
(lp4576
Vreference/ml/X17cx
p4577
asa(dp4578
g2
S'3108'
p4579
sg4
(lp4580
Vjournals/jcisd/Kaufman93
p4581
asa(dp4582
g2
S'3109'
p4583
sg4
(lp4584
Vconf/interact/Schrammel11
p4585
asa(dp4586
g2
S'49'
p4587
sg4
(lp4588
Vreference/ml/X17ah
p4589
asa(dp4590
g2
S'951'
p4591
sg4
(lp4592
Vconf/iccS/HuXTZC05
p4593
asa(dp4594
g2
S'950'
p4595
sg4
(lp4596
Vreference/ml/X17jt
p4597
asa(dp4598
g2
S'44'
p4599
sg4
(lp4600
Vreference/ml/X17bd
p4601
asa(dp4602
g2
S'42'
p4603
sg4
(lp4604
Vreference/ml/X17au
p4605
asa(dp4606
g2
S'43'
p4607
sg4
(lp4608
Vreference/ml/X17at
p4609
asa(dp4610
g2
S'40'
p4611
sg4
(lp4612
Vreference/ml/X17ax
p4613
asa(dp4614
g2
S'41'
p4615
sg4
(lp4616
Vreference/ml/Gama17
p4617
asa(dp4618
g2
S'1447'
p4619
sg4
(lp4620
Vjournals/jcisd/GoddenB01
p4621
asa(dp4622
g2
S'1446'
p4623
sg4
(lp4624
Vreference/ml/SaittaS17a
p4625
aVreference/ml/SaittaS10a
p4626
asa(dp4627
g2
S'1445'
p4628
sg4
(lp4629
Vconf/icdm/ZhangLLC10
p4630
asa(dp4631
g2
S'3194'
p4632
sg4
(lp4633
Vreference/ml/X17e
p4634
asa(dp4635
g2
S'1443'
p4636
sg4
(lp4637
Vjournals/kais/TangH10
p4638
asa(dp4639
g2
S'1442'
p4640
sg4
(lp4641
Vreference/ml/X17ky
p4642
asa(dp4643
g2
S'2509'
p4644
sg4
(lp4645
Vreference/ml/Toivonen17d
p4646
asa(dp4647
g2
S'2508'
p4648
sg4
(lp4649
Vreference/ml/Jensen17
p4650
asa(dp4651
g2
S'1560'
p4652
sg4
(lp4653
Vreference/ml/Baxter17
p4654
asa(dp4655
g2
S'476'
p4656
sg4
(lp4657
Vjournals/jcisd/Rogalski78
p4658
asa(dp4659
g2
S'3301'
p4660
sg4
(lp4661
g2913
ag2914
asa(dp4662
g2
S'2503'
p4663
sg4
(lp4664
Vreference/ml/FlenerS17
p4665
asa(dp4666
g2
S'2502'
p4667
sg4
(lp4668
Vreference/ml/Igel17
p4669
asa(dp4670
g2
S'2501'
p4671
sg4
(lp4672
Vjournals/jcisd/BegerFLLWM01
p4673
asa(dp4674
g2
S'2500'
p4675
sg4
(lp4676
Vjournals/jcisd/BegerFLLWM00
p4677
asa(dp4678
g2
S'2727'
p4679
sg4
(lp4680
Vreference/ml/X17ni
p4681
asa(dp4682
g2
S'2649'
p4683
sg4
(lp4684
Vreference/ml/X17s
p4685
asa(dp4686
g2
S'1219'
p4687
sg4
(lp4688
Vconf/systor/PellegRR10
p4689
asa(dp4690
g2
S'2722'
p4691
sg4
(lp4692
Vreference/ml/X17nd
p4693
asa(dp4694
g2
S'2720'
p4695
sg4
(lp4696
Vreference/ml/X17nf
p4697
asa(dp4698
g2
S'2640'
p4699
sg4
(lp4700
Vseries/sci/GalassiBS10
p4701
asa(dp4702
g2
S'461'
p4703
sg4
(lp4704
Vconf/kdd/MagnussonK12
p4705
asa(dp4706
g2
S'2642'
p4707
sg4
(lp4708
Vjournals/jcisd/BouyerPL96
p4709
asa(dp4710
g2
S'3190'
p4711
sg4
(lp4712
Vjournals/ml/Campi10
p4713
asa(dp4714
g2
S'2646'
p4715
sg4
(lp4716
Vjournals/jcisd/Alsberg75
p4717
asa(dp4718
g2
S'2728'
p4719
sg4
(lp4720
Vreference/ml/X17nn
p4721
asa(dp4722
g2
S'1789'
p4723
sg4
(lp4724
Vjournals/jcisd/RickettsBHHTR93
p4725
asa(dp4726
g2
S'2426'
p4727
sg4
(lp4728
Vjournals/artmed/JerezMGARMF10
p4729
asa(dp4730
g2
S'3704'
p4731
sg4
(lp4732
Vjournals/ml/Flach10
p4733
asa(dp4734
g2
S'484'
p4735
sg4
(lp4736
Vconf/lrec/Wawer10
p4737
asa(dp4738
g2
S'1804'
p4739
sg4
(lp4740
Vconf/ismb/CheungYSdMG05
p4741
asa(dp4742
g2
S'1807'
p4743
sg4
(lp4744
Vjournals/jcn/Zhu11
p4745
aVconf/iri/Zhu10
p4746
asa(dp4747
g2
S'3780'
p4748
sg4
(lp4749
Vseries/sebi/Yang10
p4750
asa(dp4751
g2
S'3428'
p4752
sg4
(lp4753
Vreference/ml/Raedt17
p4754
asa(dp4755
g2
S'3786'
p4756
sg4
(lp4757
Vreference/ml/Raedt17b
p4758
asa(dp4759
g2
S'3787'
p4760
sg4
(lp4761
Vjournals/jmlr/ErtekinR11
p4762
asa(dp4763
g2
S'1801'
p4764
sg4
(lp4765
Vconf/esann/MicheSL10
p4766
asa(dp4767
g2
S'3785'
p4768
sg4
(lp4769
Vconf/isda/AliHBS11
p4770
asa(dp4771
g2
S'3420'
p4772
sg4
(lp4773
Vjournals/gis/Laurini98
p4774
asa(dp4775
g2
S'3426'
p4776
sg4
(lp4777
Vconf/iccS/Knight03
p4778
asa(dp4779
g2
S'1809'
p4780
sg4
(lp4781
Vconf/isspit/ArroyoZZ11
p4782
asa(dp4783
g2
S'1808'
p4784
sg4
(lp4785
Vjournals/bmcsb/ZhangHBW10
p4786
asa(dp4787
g2
S'3197'
p4788
sg4
(lp4789
Vreference/ml/X17b
p4790
asa(dp4791
g2
S'3196'
p4792
sg4
(lp4793
Vreference/ml/X17c
p4794
asa(dp4795
g2
S'470'
p4796
sg4
(lp4797
Vreference/ml/Drummond17b
p4798
aVreference/ml/Drummond10b
p4799
asa(dp4800
g2
S'1365'
p4801
sg4
(lp4802
Vconf/ideal/2000
p4803
asa(dp4804
g2
S'3193'
p4805
sg4
(lp4806
Vreference/ml/X17f
p4807
asa(dp4808
g2
S'3192'
p4809
sg4
(lp4810
Vreference/ml/X17h
p4811
asa(dp4812
g2
S'3191'
p4813
sg4
(lp4814
Vreference/ml/X17i
p4815
asa(dp4816
g2
S'1361'
p4817
sg4
(lp4818
Vjournals/ml/Ozogur-AkyuzUS11
p4819
asa(dp4820
g2
S'3519'
p4821
sg4
(lp4822
Vconf/www/IrmakK10
p4823
asa(dp4824
g2
S'479'
p4825
sg4
(lp4826
Vjournals/ijsi/TaoWHY10
p4827
asa(dp4828
g2
S'3199'
p4829
sg4
(lp4830
Vreference/ml/Todorovski17
p4831
asa(dp4832
g2
S'3198'
p4833
sg4
(lp4834
Vreference/ml/X17a
p4835
asa.